; ModuleID = 'E:/Exercise/FPGA/FPGA_CNN/01_mnist_cnn/hls/pool_core/solution1/.autopilot/db/a.o.2.bc'
target datalayout = "e-p:32:32:32-i1:8:8-i8:8:8-i16:16:16-i32:32:32-i64:64:64-f32:32:32-f64:64:64-f80:128:128-v64:64:64-v128:128:128-a0:0:64-f80:32:32-n8:16:32-S32"
target triple = "i686-pc-mingw32"

@llvm.global_ctors.1 = appending global [1 x void ()*] [void ()* @_GLOBAL__I_a] ; [#uses=0 type=[1 x void ()*]*]
@llvm.global_ctors.0 = appending global [1 x i32] [i32 65535] ; [#uses=0 type=[1 x i32]*]
@Pool.str = internal unnamed_addr constant [5 x i8] c"Pool\00" ; [#uses=1 type=[5 x i8]*]
@.str3 = private unnamed_addr constant [10 x i8] c"s_axilite\00", align 1 ; [#uses=7 type=[10 x i8]*]
@.str2 = private unnamed_addr constant [6 x i8] c"slave\00", align 1 ; [#uses=2 type=[6 x i8]*]
@.str1 = private unnamed_addr constant [1 x i8] zeroinitializer, align 1 ; [#uses=52 type=[1 x i8]*]
@.str = private unnamed_addr constant [6 x i8] c"m_axi\00", align 1 ; [#uses=2 type=[6 x i8]*]

; [#uses=74]
declare void @llvm.dbg.value(metadata, i64, metadata) nounwind readnone

; [#uses=1]
declare void @_ssdm_op_SpecTopModule(...)

; [#uses=5]
declare i32 @_ssdm_op_SpecLoopTripCount(...)

; [#uses=9]
declare void @_ssdm_op_SpecInterface(...) nounwind

; [#uses=8]
declare void @_ssdm_op_SpecBitsMap(...)

; [#uses=4]
declare i8 @_ssdm_op_PartSelect.i8.i32.i32.i32(i32, i32, i32) nounwind readnone

; [#uses=1]
declare void @_GLOBAL__I_a() nounwind

; [#uses=0]
define void @Pool(i16 %CHin.V, i16 %Hin.V, i16 %Win.V, i8 %Kx.V, i8 %Ky.V, i2 %mode.V, float* %feature_in, float* %feature_out) {
  call void (...)* @_ssdm_op_SpecBitsMap(i16 %CHin.V), !map !7611
  call void (...)* @_ssdm_op_SpecBitsMap(i16 %Hin.V), !map !7617
  call void (...)* @_ssdm_op_SpecBitsMap(i16 %Win.V), !map !7621
  call void (...)* @_ssdm_op_SpecBitsMap(i8 %Kx.V), !map !7625
  call void (...)* @_ssdm_op_SpecBitsMap(i8 %Ky.V), !map !7629
  call void (...)* @_ssdm_op_SpecBitsMap(i2 %mode.V), !map !7633
  call void (...)* @_ssdm_op_SpecBitsMap(float* %feature_in), !map !7637
  call void (...)* @_ssdm_op_SpecBitsMap(float* %feature_out), !map !7641
  call void (...)* @_ssdm_op_SpecTopModule([5 x i8]* @Pool.str) nounwind
  call void @llvm.dbg.value(metadata !{float* %feature_in}, i64 0, metadata !7645), !dbg !7646 ; [debug line = 8:11] [debug variable = feature_in]
  call void @llvm.dbg.value(metadata !{float* %feature_out}, i64 0, metadata !7647), !dbg !7648 ; [debug line = 8:32] [debug variable = feature_out]
  call void (...)* @_ssdm_op_SpecInterface(float* %feature_out, [6 x i8]* @.str, i32 0, i32 0, [1 x i8]* @.str1, i32 0, i64 4294967295, [1 x i8]* @.str1, [6 x i8]* @.str2, [1 x i8]* @.str1, i32 16, i32 16, i32 16, i32 16, [1 x i8]* @.str1, [1 x i8]* @.str1) nounwind, !dbg !7649 ; [debug line = 11:1]
  call void (...)* @_ssdm_op_SpecInterface(float* %feature_in, [6 x i8]* @.str, i32 0, i32 0, [1 x i8]* @.str1, i32 0, i64 4294967295, [1 x i8]* @.str1, [6 x i8]* @.str2, [1 x i8]* @.str1, i32 16, i32 16, i32 16, i32 16, [1 x i8]* @.str1, [1 x i8]* @.str1) nounwind, !dbg !7651 ; [debug line = 12:1]
  call void (...)* @_ssdm_op_SpecInterface(i16 %Win.V, [10 x i8]* @.str3, i32 0, i32 0, [1 x i8]* @.str1, i32 0, i32 0, [1 x i8]* @.str1, [1 x i8]* @.str1, [1 x i8]* @.str1, i32 0, i32 0, i32 0, i32 0, [1 x i8]* @.str1, [1 x i8]* @.str1) nounwind, !dbg !7652 ; [debug line = 13:1]
  call void (...)* @_ssdm_op_SpecInterface(i8 %Kx.V, [10 x i8]* @.str3, i32 0, i32 0, [1 x i8]* @.str1, i32 0, i32 0, [1 x i8]* @.str1, [1 x i8]* @.str1, [1 x i8]* @.str1, i32 0, i32 0, i32 0, i32 0, [1 x i8]* @.str1, [1 x i8]* @.str1) nounwind, !dbg !7653 ; [debug line = 14:1]
  call void (...)* @_ssdm_op_SpecInterface(i16 %Hin.V, [10 x i8]* @.str3, i32 0, i32 0, [1 x i8]* @.str1, i32 0, i32 0, [1 x i8]* @.str1, [1 x i8]* @.str1, [1 x i8]* @.str1, i32 0, i32 0, i32 0, i32 0, [1 x i8]* @.str1, [1 x i8]* @.str1) nounwind, !dbg !7654 ; [debug line = 15:1]
  call void (...)* @_ssdm_op_SpecInterface(i2 %mode.V, [10 x i8]* @.str3, i32 0, i32 0, [1 x i8]* @.str1, i32 0, i32 0, [1 x i8]* @.str1, [1 x i8]* @.str1, [1 x i8]* @.str1, i32 0, i32 0, i32 0, i32 0, [1 x i8]* @.str1, [1 x i8]* @.str1) nounwind, !dbg !7655 ; [debug line = 16:1]
  call void (...)* @_ssdm_op_SpecInterface(i8 %Ky.V, [10 x i8]* @.str3, i32 0, i32 0, [1 x i8]* @.str1, i32 0, i32 0, [1 x i8]* @.str1, [1 x i8]* @.str1, [1 x i8]* @.str1, i32 0, i32 0, i32 0, i32 0, [1 x i8]* @.str1, [1 x i8]* @.str1) nounwind, !dbg !7656 ; [debug line = 17:1]
  call void (...)* @_ssdm_op_SpecInterface(i16 %CHin.V, [10 x i8]* @.str3, i32 0, i32 0, [1 x i8]* @.str1, i32 0, i32 0, [1 x i8]* @.str1, [1 x i8]* @.str1, [1 x i8]* @.str1, i32 0, i32 0, i32 0, i32 0, [1 x i8]* @.str1, [1 x i8]* @.str1) nounwind, !dbg !7657 ; [debug line = 18:1]
  call void (...)* @_ssdm_op_SpecInterface(i32 0, [10 x i8]* @.str3, i32 0, i32 0, [1 x i8]* @.str1, i32 0, i32 0, [1 x i8]* @.str1, [1 x i8]* @.str1, [1 x i8]* @.str1, i32 0, i32 0, i32 0, i32 0, [1 x i8]* @.str1, [1 x i8]* @.str1) nounwind, !dbg !7658 ; [debug line = 19:1]
  %lhs.V = zext i8 %Kx.V to i16, !dbg !7659       ; [#uses=3 type=i16] [debug line = 3325:0@21:7]
  %r.V.3 = udiv i16 %Win.V, %lhs.V, !dbg !7659    ; [#uses=2 type=i16] [debug line = 3325:0@21:7]
  call void @llvm.dbg.value(metadata !{i16 %r.V.3}, i64 0, metadata !7662), !dbg !7659 ; [debug line = 3325:0@21:7] [debug variable = r.V]
  call void @llvm.dbg.value(metadata !{i16 %r.V.3}, i64 0, metadata !7669), !dbg !7673 ; [debug line = 234:10@21:7] [debug variable = Wout.V]
  %tmp.3 = zext i16 %r.V.3 to i32                 ; [#uses=1 type=i32]
  %rhs.V = zext i8 %Ky.V to i16                   ; [#uses=3 type=i16]
  %tmp.5 = udiv i16 %Hin.V, %rhs.V, !dbg !7675    ; [#uses=1 type=i16] [debug line = 24:13]
  %rhs.V.1 = zext i16 %CHin.V to i32              ; [#uses=5 type=i32]
  call void @llvm.dbg.value(metadata !{i32 %rhs.V.1}, i64 0, metadata !7677), !dbg !7684 ; [debug line = 1405:95@1405:111@3322:0@45:74] [debug variable = rhs.V]
  call void @llvm.dbg.value(metadata !{i32 %rhs.V.1}, i64 0, metadata !7677), !dbg !7697 ; [debug line = 1405:95@1405:111@3322:0@44:70] [debug variable = rhs.V]
  %tmp.2 = icmp eq i2 %mode.V, 0, !dbg !7702      ; [#uses=3 type=i1] [debug line = 1933:9@3484:0@29:8]
  %tmp.1 = zext i16 %Win.V to i32, !dbg !7707     ; [#uses=1 type=i32] [debug line = 43:43]
  %r.V.4 = mul i16 %rhs.V, %lhs.V, !dbg !7709     ; [#uses=1 type=i16] [debug line = 3322:0@50:15]
  %tmp. = zext i16 %r.V.4 to i32, !dbg !7712      ; [#uses=1 type=i32] [debug line = 3383:0@50:15]
  %tmp.4 = sitofp i32 %tmp. to float, !dbg !7712  ; [#uses=1 type=float] [debug line = 3383:0@50:15]
  %tmp.9 = icmp eq i2 %mode.V, 1, !dbg !7714      ; [#uses=1 type=i1] [debug line = 1933:9@3484:0@32:9]
  br label %1, !dbg !7675                         ; [debug line = 24:13]

; <label>:1                                       ; preds = %15, %0
  %op.assign.8 = phi i16 [ 0, %0 ], [ %c, %15 ]   ; [#uses=3 type=i16]
  call void @llvm.dbg.value(metadata !{i16 %op.assign.8}, i64 0, metadata !7717), !dbg !7718 ; [debug line = 1420:68@1420:88@3484:0@45:85] [debug variable = op]
  call void @llvm.dbg.value(metadata !{i16 %op.assign.8}, i64 0, metadata !7723), !dbg !7724 ; [debug line = 1420:68@3484:0@45:85] [debug variable = op]
  call void @llvm.dbg.value(metadata !{i16 %op.assign.8}, i64 0, metadata !7725), !dbg !7726 ; [debug line = 3484:0@45:85] [debug variable = i_op]
  call void @llvm.dbg.value(metadata !{i16 %op.assign.8}, i64 0, metadata !7717), !dbg !7727 ; [debug line = 1420:68@1420:88@3484:0@44:81] [debug variable = op]
  call void @llvm.dbg.value(metadata !{i16 %op.assign.8}, i64 0, metadata !7723), !dbg !7731 ; [debug line = 1420:68@3484:0@44:81] [debug variable = op]
  call void @llvm.dbg.value(metadata !{i16 %op.assign.8}, i64 0, metadata !7725), !dbg !7732 ; [debug line = 3484:0@44:81] [debug variable = i_op]
  %i_op.assign.17.cast7 = zext i16 %op.assign.8 to i32, !dbg !7733 ; [#uses=2 type=i32] [debug line = 24:16]
  %exitcond4 = icmp eq i16 %op.assign.8, %CHin.V, !dbg !7733 ; [#uses=1 type=i1] [debug line = 24:16]
  %2 = call i32 (...)* @_ssdm_op_SpecLoopTripCount(i64 0, i64 65535, i64 0) ; [#uses=0 type=i32]
  br i1 %exitcond4, label %16, label %.preheader1011.preheader, !dbg !7733 ; [debug line = 24:16]

.preheader1011.preheader:                         ; preds = %1
  br label %.preheader1011, !dbg !7734            ; [debug line = 25:17]

.preheader1011:                                   ; preds = %14, %.preheader1011.preheader
  %i_op.assign.11 = phi i16 [ %i, %14 ], [ 0, %.preheader1011.preheader ] ; [#uses=4 type=i16]
  %i_op.assign.13.cast6 = zext i16 %i_op.assign.11 to i32, !dbg !7734 ; [#uses=1 type=i32] [debug line = 25:17]
  %exitcond1 = icmp eq i16 %i_op.assign.11, %tmp.5, !dbg !7734 ; [#uses=1 type=i1] [debug line = 25:17]
  %3 = call i32 (...)* @_ssdm_op_SpecLoopTripCount(i64 0, i64 65535, i64 0) ; [#uses=0 type=i32]
  br i1 %exitcond1, label %15, label %.preheader1010.preheader, !dbg !7734 ; [debug line = 25:17]

.preheader1010.preheader:                         ; preds = %.preheader1011
  %tmp.8 = mul i16 %rhs.V, %i_op.assign.11, !dbg !7735 ; [#uses=1 type=i16] [debug line = 75:90@75:106@39:20]
  %. = mul i32 %tmp.3, %i_op.assign.13.cast6, !dbg !7739 ; [#uses=1 type=i32] [debug line = 51:29]
  br label %.preheader1010, !dbg !7740            ; [debug line = 26:18]

.preheader1010:                                   ; preds = %._crit_edge1016, %.preheader1010.preheader
  %i_op.assign.13 = phi i16 [ %j, %._crit_edge1016 ], [ 0, %.preheader1010.preheader ] ; [#uses=4 type=i16]
  %i_op.assign.15.cast5 = zext i16 %i_op.assign.13 to i32, !dbg !7740 ; [#uses=1 type=i32] [debug line = 26:18]
  %exitcond = icmp eq i16 %i_op.assign.13, %r.V.3, !dbg !7740 ; [#uses=1 type=i1] [debug line = 26:18]
  %4 = call i32 (...)* @_ssdm_op_SpecLoopTripCount(i64 0, i64 65535, i64 0) ; [#uses=0 type=i32]
  br i1 %exitcond, label %14, label %.preheader1009.preheader, !dbg !7740 ; [debug line = 26:18]

.preheader1009.preheader:                         ; preds = %.preheader1010
  %sum = select i1 %tmp.2, float 0.000000e+00, float 0x4376345780000000, !dbg !7706 ; [#uses=1 type=float] [debug line = 29:8]
  %tmp.6 = or i1 %tmp.2, %tmp.9, !dbg !7706       ; [#uses=1 type=i1] [debug line = 29:8]
  %.sum = select i1 %tmp.6, float %sum, float 0xC376345780000000, !dbg !7706 ; [#uses=1 type=float] [debug line = 29:8]
  %tmp.7 = mul i16 %lhs.V, %i_op.assign.13, !dbg !7741 ; [#uses=1 type=i16] [debug line = 75:90@75:106@40:20]
  br label %.preheader1009, !dbg !7744            ; [debug line = 1609:70@36:21]

.preheader1009:                                   ; preds = %11, %.preheader1009.preheader
  %i_op.assign = phi float [ %sum.3.lcssa, %11 ], [ %.sum, %.preheader1009.preheader ] ; [#uses=2 type=float]
  %i_op.assign.12 = phi i8 [ %ii, %11 ], [ 0, %.preheader1009.preheader ] ; [#uses=3 type=i8]
  %exitcond2 = icmp eq i8 %i_op.assign.12, %Ky.V, !dbg !7746 ; [#uses=1 type=i1] [debug line = 36:21]
  %5 = call i32 (...)* @_ssdm_op_SpecLoopTripCount(i64 0, i64 255, i64 0) ; [#uses=0 type=i32]
  br i1 %exitcond2, label %12, label %.preheader.preheader, !dbg !7746 ; [debug line = 36:21]

.preheader.preheader:                             ; preds = %.preheader1009
  %tmp.10 = zext i8 %i_op.assign.12 to i16, !dbg !7735 ; [#uses=1 type=i16] [debug line = 75:90@75:106@39:20]
  %h.V = add i16 %tmp.8, %tmp.10, !dbg !7735      ; [#uses=1 type=i16] [debug line = 75:90@75:106@39:20]
  %lhs.V.1 = sext i16 %h.V to i32, !dbg !7747     ; [#uses=1 type=i32] [debug line = 1405:95@1405:111@3322:0@43:32]
  call void @llvm.dbg.value(metadata !{i32 %lhs.V.1}, i64 0, metadata !7752), !dbg !7754 ; [debug line = 1405:95@1405:111@3322:0@45:74] [debug variable = lhs.V]
  call void @llvm.dbg.value(metadata !{i32 %lhs.V.1}, i64 0, metadata !7752), !dbg !7756 ; [debug line = 1405:95@1405:111@3322:0@44:70] [debug variable = lhs.V]
  %tmp2 = mul i32 %rhs.V.1, %tmp.1, !dbg !7707    ; [#uses=1 type=i32] [debug line = 43:43]
  %tmp.11 = mul i32 %lhs.V.1, %tmp2, !dbg !7707   ; [#uses=1 type=i32] [debug line = 43:43]
  %tmp.12 = add i32 %i_op.assign.17.cast7, %tmp.11, !dbg !7707 ; [#uses=3 type=i32] [debug line = 43:43]
  br label %.preheader, !dbg !7758                ; [debug line = 1609:70@37:22]

.preheader:                                       ; preds = %._crit_edge, %.preheader.preheader
  %sum.3 = phi float [ %sum.4, %._crit_edge ], [ %i_op.assign, %.preheader.preheader ] ; [#uses=9 type=float]
  %i_op.assign.14 = phi i8 [ %jj, %._crit_edge ], [ 0, %.preheader.preheader ] ; [#uses=3 type=i8]
  %exitcond3 = icmp eq i8 %i_op.assign.14, %Kx.V, !dbg !7759 ; [#uses=1 type=i1] [debug line = 37:22]
  %6 = call i32 (...)* @_ssdm_op_SpecLoopTripCount(i64 0, i64 255, i64 0) ; [#uses=0 type=i32]
  br i1 %exitcond3, label %11, label %7, !dbg !7759 ; [debug line = 37:22]

; <label>:7                                       ; preds = %.preheader
  call void @llvm.dbg.value(metadata !{i16 %i_op.assign.11}, i64 0, metadata !7760), !dbg !7761 ; [debug line = 3484:152@39:20] [debug variable = i_op]
  call void @llvm.dbg.value(metadata !{i16 %i_op.assign.11}, i64 0, metadata !7723), !dbg !7762 ; [debug line = 1420:68@3484:203@39:20] [debug variable = op]
  call void @llvm.dbg.value(metadata !{i16 %i_op.assign.11}, i64 0, metadata !7717), !dbg !7765 ; [debug line = 1420:68@1420:88@3484:203@39:20] [debug variable = op]
  call void @llvm.dbg.value(metadata !{i8 %i_op.assign.12}, i64 0, metadata !7767), !dbg !7768 ; [debug line = 3484:0@39:20] [debug variable = i_op]
  call void @llvm.dbg.value(metadata !{i8 %i_op.assign.12}, i64 0, metadata !7723), !dbg !7769 ; [debug line = 1420:68@3484:0@39:20] [debug variable = op]
  call void @llvm.dbg.value(metadata !{i8 %i_op.assign.12}, i64 0, metadata !7717), !dbg !7772 ; [debug line = 1420:68@1420:88@3484:0@39:20] [debug variable = op]
  call void @llvm.dbg.value(metadata !{i16 %h.V}, i64 0, metadata !7774), !dbg !7735 ; [debug line = 75:90@75:106@39:20] [debug variable = h.V]
  call void @llvm.dbg.value(metadata !{i16 %i_op.assign.13}, i64 0, metadata !7760), !dbg !7782 ; [debug line = 3484:152@40:20] [debug variable = i_op]
  call void @llvm.dbg.value(metadata !{i16 %i_op.assign.13}, i64 0, metadata !7723), !dbg !7783 ; [debug line = 1420:68@3484:203@40:20] [debug variable = op]
  call void @llvm.dbg.value(metadata !{i16 %i_op.assign.13}, i64 0, metadata !7717), !dbg !7785 ; [debug line = 1420:68@1420:88@3484:203@40:20] [debug variable = op]
  call void @llvm.dbg.value(metadata !{i8 %i_op.assign.14}, i64 0, metadata !7767), !dbg !7787 ; [debug line = 3484:0@40:20] [debug variable = i_op]
  call void @llvm.dbg.value(metadata !{i8 %i_op.assign.14}, i64 0, metadata !7723), !dbg !7788 ; [debug line = 1420:68@3484:0@40:20] [debug variable = op]
  call void @llvm.dbg.value(metadata !{i8 %i_op.assign.14}, i64 0, metadata !7717), !dbg !7790 ; [debug line = 1420:68@1420:88@3484:0@40:20] [debug variable = op]
  %tmp.14 = zext i8 %i_op.assign.14 to i16, !dbg !7741 ; [#uses=1 type=i16] [debug line = 75:90@75:106@40:20]
  %w.V = add i16 %tmp.14, %tmp.7, !dbg !7741      ; [#uses=3 type=i16] [debug line = 75:90@75:106@40:20]
  call void @llvm.dbg.value(metadata !{i16 %w.V}, i64 0, metadata !7792), !dbg !7741 ; [debug line = 75:90@75:106@40:20] [debug variable = w.V]
  switch i2 %mode.V, label %._crit_edge [
    i2 0, label %8
    i2 1, label %9
    i2 -2, label %10
  ], !dbg !7794                                   ; [debug line = 41:14]

; <label>:8                                       ; preds = %7
  call void @llvm.dbg.value(metadata !{i32 %lhs.V.1}, i64 0, metadata !7752), !dbg !7747 ; [debug line = 1405:95@1405:111@3322:0@43:32] [debug variable = lhs.V]
  call void @llvm.dbg.value(metadata !{i32 %rhs.V.1}, i64 0, metadata !7677), !dbg !7795 ; [debug line = 1405:95@1405:111@3322:0@43:32] [debug variable = rhs.V]
  %lhs.V.2 = sext i16 %w.V to i32, !dbg !7797     ; [#uses=1 type=i32] [debug line = 1405:95@1405:111@3322:0@43:43]
  call void @llvm.dbg.value(metadata !{i32 %lhs.V.2}, i64 0, metadata !7752), !dbg !7797 ; [debug line = 1405:95@1405:111@3322:0@43:43] [debug variable = lhs.V]
  %r.V = mul nsw i32 %rhs.V.1, %lhs.V.2, !dbg !7799 ; [#uses=1 type=i32] [debug line = 3322:0@43:43]
  call void @llvm.dbg.value(metadata !{i32 %r.V}, i64 0, metadata !7800), !dbg !7799 ; [debug line = 3322:0@43:43] [debug variable = r.V]
  call void @llvm.dbg.value(metadata !{i16 %op.assign.8}, i64 0, metadata !7725), !dbg !7803 ; [debug line = 3484:0@43:43] [debug variable = i_op]
  call void @llvm.dbg.value(metadata !{i16 %op.assign.8}, i64 0, metadata !7723), !dbg !7804 ; [debug line = 1420:68@3484:0@43:43] [debug variable = op]
  call void @llvm.dbg.value(metadata !{i16 %op.assign.8}, i64 0, metadata !7717), !dbg !7806 ; [debug line = 1420:68@1420:88@3484:0@43:43] [debug variable = op]
  %tmp.15 = add i32 %tmp.12, %r.V, !dbg !7707     ; [#uses=1 type=i32] [debug line = 43:43]
  %feature_in.addr = getelementptr inbounds float* %feature_in, i32 %tmp.15, !dbg !7707 ; [#uses=1 type=float*] [debug line = 43:43]
  %feature_in.load = load float* %feature_in.addr, align 4, !dbg !7707 ; [#uses=1 type=float] [debug line = 43:43]
  %sum.2 = fadd float %sum.3, %feature_in.load, !dbg !7707 ; [#uses=1 type=float] [debug line = 43:43]
  call void @llvm.dbg.value(metadata !{float %sum.2}, i64 0, metadata !7808), !dbg !7707 ; [debug line = 43:43] [debug variable = sum]
  br label %._crit_edge, !dbg !7809               ; [debug line = 43:53]

; <label>:9                                       ; preds = %7
  call void @llvm.dbg.value(metadata !{i32 %lhs.V.1}, i64 0, metadata !7752), !dbg !7810 ; [debug line = 1405:95@1405:111@3322:0@44:37] [debug variable = lhs.V]
  call void @llvm.dbg.value(metadata !{i32 %rhs.V.1}, i64 0, metadata !7677), !dbg !7814 ; [debug line = 1405:95@1405:111@3322:0@44:37] [debug variable = rhs.V]
  %lhs.V.3 = sext i16 %w.V to i32, !dbg !7816     ; [#uses=1 type=i32] [debug line = 1405:95@1405:111@3322:0@44:48]
  call void @llvm.dbg.value(metadata !{i32 %lhs.V.3}, i64 0, metadata !7752), !dbg !7820 ; [debug line = 1405:95@1405:111@3322:0@44:81] [debug variable = lhs.V]
  call void @llvm.dbg.value(metadata !{i32 %lhs.V.3}, i64 0, metadata !7752), !dbg !7816 ; [debug line = 1405:95@1405:111@3322:0@44:48] [debug variable = lhs.V]
  %r.V.1 = mul nsw i32 %rhs.V.1, %lhs.V.3, !dbg !7818 ; [#uses=1 type=i32] [debug line = 3322:0@44:48]
  call void @llvm.dbg.value(metadata !{i32 %r.V.1}, i64 0, metadata !7800), !dbg !7822 ; [debug line = 3322:0@44:81] [debug variable = r.V]
  call void @llvm.dbg.value(metadata !{i32 %r.V.1}, i64 0, metadata !7800), !dbg !7818 ; [debug line = 3322:0@44:48] [debug variable = r.V]
  call void @llvm.dbg.value(metadata !{i16 %op.assign.8}, i64 0, metadata !7725), !dbg !7823 ; [debug line = 3484:0@44:48] [debug variable = i_op]
  call void @llvm.dbg.value(metadata !{i16 %op.assign.8}, i64 0, metadata !7723), !dbg !7824 ; [debug line = 1420:68@3484:0@44:48] [debug variable = op]
  call void @llvm.dbg.value(metadata !{i16 %op.assign.8}, i64 0, metadata !7717), !dbg !7826 ; [debug line = 1420:68@1420:88@3484:0@44:48] [debug variable = op]
  %tmp.16 = add i32 %tmp.12, %r.V.1, !dbg !7819   ; [#uses=1 type=i32] [debug line = 44:48]
  %feature_in.addr.1 = getelementptr inbounds float* %feature_in, i32 %tmp.16, !dbg !7819 ; [#uses=1 type=float*] [debug line = 44:48]
  %feature_in.load.1 = load float* %feature_in.addr.1, align 4, !dbg !7819 ; [#uses=3 type=float] [debug line = 44:48]
  %sum.3_to_int = bitcast float %sum.3 to i32     ; [#uses=2 type=i32]
  %tmp.17 = call i8 @_ssdm_op_PartSelect.i8.i32.i32.i32(i32 %sum.3_to_int, i32 23, i32 30) ; [#uses=1 type=i8]
  %tmp.18 = trunc i32 %sum.3_to_int to i23        ; [#uses=1 type=i23]
  %feature_in.load.1_to_int = bitcast float %feature_in.load.1 to i32 ; [#uses=2 type=i32]
  %tmp.19 = call i8 @_ssdm_op_PartSelect.i8.i32.i32.i32(i32 %feature_in.load.1_to_int, i32 23, i32 30) ; [#uses=1 type=i8]
  %tmp.20 = trunc i32 %feature_in.load.1_to_int to i23 ; [#uses=1 type=i23]
  %notlhs1 = icmp ne i8 %tmp.17, -1               ; [#uses=1 type=i1]
  %notrhs1 = icmp eq i23 %tmp.18, 0               ; [#uses=1 type=i1]
  %tmp.21 = or i1 %notrhs1, %notlhs1              ; [#uses=1 type=i1]
  %notlhs2 = icmp ne i8 %tmp.19, -1               ; [#uses=1 type=i1]
  %notrhs2 = icmp eq i23 %tmp.20, 0               ; [#uses=1 type=i1]
  %tmp.23 = or i1 %notrhs2, %notlhs2              ; [#uses=1 type=i1]
  %tmp.24 = and i1 %tmp.21, %tmp.23               ; [#uses=1 type=i1]
  %tmp.25 = fcmp ogt float %sum.3, %feature_in.load.1, !dbg !7819 ; [#uses=1 type=i1] [debug line = 44:48]
  %tmp.26 = and i1 %tmp.24, %tmp.25, !dbg !7819   ; [#uses=1 type=i1] [debug line = 44:48]
  %feature_in.load.1.sum.3 = select i1 %tmp.26, float %feature_in.load.1, float %sum.3, !dbg !7819 ; [#uses=1 type=float] [debug line = 44:48]
  br label %._crit_edge, !dbg !7819               ; [debug line = 44:48]

; <label>:10                                      ; preds = %7
  call void @llvm.dbg.value(metadata !{i32 %lhs.V.1}, i64 0, metadata !7752), !dbg !7828 ; [debug line = 1405:95@1405:111@3322:0@45:37] [debug variable = lhs.V]
  call void @llvm.dbg.value(metadata !{i32 %rhs.V.1}, i64 0, metadata !7677), !dbg !7832 ; [debug line = 1405:95@1405:111@3322:0@45:37] [debug variable = rhs.V]
  %lhs.V.4 = sext i16 %w.V to i32, !dbg !7834     ; [#uses=1 type=i32] [debug line = 1405:95@1405:111@3322:0@45:48]
  call void @llvm.dbg.value(metadata !{i32 %lhs.V.4}, i64 0, metadata !7752), !dbg !7838 ; [debug line = 1405:95@1405:111@3322:0@45:85] [debug variable = lhs.V]
  call void @llvm.dbg.value(metadata !{i32 %lhs.V.4}, i64 0, metadata !7752), !dbg !7834 ; [debug line = 1405:95@1405:111@3322:0@45:48] [debug variable = lhs.V]
  %r.V.2 = mul nsw i32 %rhs.V.1, %lhs.V.4, !dbg !7836 ; [#uses=1 type=i32] [debug line = 3322:0@45:48]
  call void @llvm.dbg.value(metadata !{i32 %r.V.2}, i64 0, metadata !7800), !dbg !7840 ; [debug line = 3322:0@45:85] [debug variable = r.V]
  call void @llvm.dbg.value(metadata !{i32 %r.V.2}, i64 0, metadata !7800), !dbg !7836 ; [debug line = 3322:0@45:48] [debug variable = r.V]
  call void @llvm.dbg.value(metadata !{i16 %op.assign.8}, i64 0, metadata !7725), !dbg !7841 ; [debug line = 3484:0@45:48] [debug variable = i_op]
  call void @llvm.dbg.value(metadata !{i16 %op.assign.8}, i64 0, metadata !7723), !dbg !7842 ; [debug line = 1420:68@3484:0@45:48] [debug variable = op]
  call void @llvm.dbg.value(metadata !{i16 %op.assign.8}, i64 0, metadata !7717), !dbg !7844 ; [debug line = 1420:68@1420:88@3484:0@45:48] [debug variable = op]
  %tmp.22 = add i32 %tmp.12, %r.V.2, !dbg !7837   ; [#uses=1 type=i32] [debug line = 45:48]
  %feature_in.addr.2 = getelementptr inbounds float* %feature_in, i32 %tmp.22, !dbg !7837 ; [#uses=1 type=float*] [debug line = 45:48]
  %feature_in.load.2 = load float* %feature_in.addr.2, align 4, !dbg !7837 ; [#uses=3 type=float] [debug line = 45:48]
  %sum.3_to_int8 = bitcast float %sum.3 to i32    ; [#uses=2 type=i32]
  %tmp.27 = call i8 @_ssdm_op_PartSelect.i8.i32.i32.i32(i32 %sum.3_to_int8, i32 23, i32 30) ; [#uses=1 type=i8]
  %tmp.28 = trunc i32 %sum.3_to_int8 to i23       ; [#uses=1 type=i23]
  %feature_in.load.2_to_int = bitcast float %feature_in.load.2 to i32 ; [#uses=2 type=i32]
  %tmp.29 = call i8 @_ssdm_op_PartSelect.i8.i32.i32.i32(i32 %feature_in.load.2_to_int, i32 23, i32 30) ; [#uses=1 type=i8]
  %tmp.30 = trunc i32 %feature_in.load.2_to_int to i23 ; [#uses=1 type=i23]
  %notlhs = icmp ne i8 %tmp.27, -1                ; [#uses=1 type=i1]
  %notrhs = icmp eq i23 %tmp.28, 0                ; [#uses=1 type=i1]
  %tmp.31 = or i1 %notrhs, %notlhs                ; [#uses=1 type=i1]
  %notlhs9 = icmp ne i8 %tmp.29, -1               ; [#uses=1 type=i1]
  %notrhs3 = icmp eq i23 %tmp.30, 0               ; [#uses=1 type=i1]
  %tmp.32 = or i1 %notrhs3, %notlhs9              ; [#uses=1 type=i1]
  %tmp.33 = and i1 %tmp.31, %tmp.32               ; [#uses=1 type=i1]
  %tmp.34 = fcmp ogt float %sum.3, %feature_in.load.2, !dbg !7837 ; [#uses=1 type=i1] [debug line = 45:48]
  %tmp.35 = and i1 %tmp.33, %tmp.34, !dbg !7837   ; [#uses=1 type=i1] [debug line = 45:48]
  %sum.3.feature_in.load.2 = select i1 %tmp.35, float %sum.3, float %feature_in.load.2, !dbg !7837 ; [#uses=1 type=float] [debug line = 45:48]
  br label %._crit_edge, !dbg !7837               ; [debug line = 45:48]

._crit_edge:                                      ; preds = %10, %9, %8, %7
  %sum.4 = phi float [ %sum.2, %8 ], [ %sum.3, %7 ], [ %feature_in.load.1.sum.3, %9 ], [ %sum.3.feature_in.load.2, %10 ] ; [#uses=1 type=float]
  %jj = add i8 %i_op.assign.14, 1, !dbg !7846     ; [#uses=1 type=i8] [debug line = 37:25]
  call void @llvm.dbg.value(metadata !{i8 %jj}, i64 0, metadata !7847), !dbg !7846 ; [debug line = 37:25] [debug variable = jj]
  br label %.preheader, !dbg !7846                ; [debug line = 37:25]

; <label>:11                                      ; preds = %.preheader
  %sum.3.lcssa = phi float [ %sum.3, %.preheader ] ; [#uses=1 type=float]
  %ii = add i8 %i_op.assign.12, 1, !dbg !7848     ; [#uses=1 type=i8] [debug line = 36:24]
  call void @llvm.dbg.value(metadata !{i8 %ii}, i64 0, metadata !7849), !dbg !7848 ; [debug line = 36:24] [debug variable = ii]
  br label %.preheader1009, !dbg !7848            ; [debug line = 36:24]

; <label>:12                                      ; preds = %.preheader1009
  %i_op.assign.lcssa = phi float [ %i_op.assign, %.preheader1009 ] ; [#uses=2 type=float]
  br i1 %tmp.2, label %13, label %._crit_edge1016, !dbg !7850 ; [debug line = 49:8]

; <label>:13                                      ; preds = %12
  call void @llvm.dbg.value(metadata !{i16 %lhs.V}, i64 0, metadata !7851), !dbg !7853 ; [debug line = 1405:95@1405:111@3322:0@50:15] [debug variable = lhs.V]
  call void @llvm.dbg.value(metadata !{i16 %rhs.V}, i64 0, metadata !7856), !dbg !7853 ; [debug line = 1405:95@1405:111@3322:0@50:15] [debug variable = rhs.V]
  call void @llvm.dbg.value(metadata !{i16 %r.V.4}, i64 0, metadata !7858), !dbg !7709 ; [debug line = 3322:0@50:15] [debug variable = r.V]
  call void @llvm.dbg.value(metadata !{float %i_op.assign}, i64 0, metadata !7861), !dbg !7862 ; [debug line = 3383:0@50:15] [debug variable = i_op]
  call void @llvm.dbg.value(metadata !{i16 %r.V.4}, i64 0, metadata !7863), !dbg !7712 ; [debug line = 3383:0@50:15] [debug variable = op2]
  %sum.1 = fdiv float %i_op.assign.lcssa, %tmp.4, !dbg !7712 ; [#uses=1 type=float] [debug line = 3383:0@50:15]
  call void @llvm.dbg.value(metadata !{float %sum.1}, i64 0, metadata !7808), !dbg !7711 ; [debug line = 50:15] [debug variable = sum]
  br label %._crit_edge1016, !dbg !7711           ; [debug line = 50:15]

._crit_edge1016:                                  ; preds = %13, %12
  %sum.5 = phi float [ %sum.1, %13 ], [ %i_op.assign.lcssa, %12 ] ; [#uses=1 type=float]
  call void @llvm.dbg.value(metadata !{i16 %i_op.assign.11}, i64 0, metadata !7864), !dbg !7865 ; [debug line = 3484:152@51:17] [debug variable = i_op]
  call void @llvm.dbg.value(metadata !{i16 %i_op.assign.11}, i64 0, metadata !7723), !dbg !7867 ; [debug line = 1420:68@3484:203@51:17] [debug variable = op]
  call void @llvm.dbg.value(metadata !{i16 %i_op.assign.11}, i64 0, metadata !7717), !dbg !7870 ; [debug line = 1420:68@1420:88@3484:203@51:17] [debug variable = op]
  call void @llvm.dbg.value(metadata !{i16 %i_op.assign.13}, i64 0, metadata !7864), !dbg !7872 ; [debug line = 3484:152@51:29] [debug variable = i_op]
  call void @llvm.dbg.value(metadata !{i16 %i_op.assign.13}, i64 0, metadata !7723), !dbg !7873 ; [debug line = 1420:68@3484:203@51:29] [debug variable = op]
  call void @llvm.dbg.value(metadata !{i16 %i_op.assign.13}, i64 0, metadata !7717), !dbg !7875 ; [debug line = 1420:68@1420:88@3484:203@51:29] [debug variable = op]
  call void @llvm.dbg.value(metadata !{i16 %op.assign.8}, i64 0, metadata !7877), !dbg !7878 ; [debug line = 3484:0@51:29] [debug variable = i_op]
  call void @llvm.dbg.value(metadata !{i16 %op.assign.8}, i64 0, metadata !7723), !dbg !7879 ; [debug line = 1420:68@3484:0@51:29] [debug variable = op]
  call void @llvm.dbg.value(metadata !{i16 %op.assign.8}, i64 0, metadata !7717), !dbg !7882 ; [debug line = 1420:68@1420:88@3484:0@51:29] [debug variable = op]
  %tmp = add i32 %i_op.assign.15.cast5, %.        ; [#uses=1 type=i32]
  %tmp1 = mul i32 %rhs.V.1, %tmp                  ; [#uses=1 type=i32]
  %tmp.13 = add i32 %i_op.assign.17.cast7, %tmp1, !dbg !7739 ; [#uses=1 type=i32] [debug line = 51:29]
  %feature_out.addr = getelementptr inbounds float* %feature_out, i32 %tmp.13, !dbg !7739 ; [#uses=1 type=float*] [debug line = 51:29]
  store float %sum.5, float* %feature_out.addr, align 4, !dbg !7739 ; [debug line = 51:29]
  %j = add i16 %i_op.assign.13, 1, !dbg !7884     ; [#uses=1 type=i16] [debug line = 26:23]
  call void @llvm.dbg.value(metadata !{i16 %j}, i64 0, metadata !7885), !dbg !7884 ; [debug line = 26:23] [debug variable = j]
  br label %.preheader1010, !dbg !7884            ; [debug line = 26:23]

; <label>:14                                      ; preds = %.preheader1010
  %i = add i16 %i_op.assign.11, 1, !dbg !7886     ; [#uses=1 type=i16] [debug line = 25:22]
  call void @llvm.dbg.value(metadata !{i16 %i}, i64 0, metadata !7887), !dbg !7886 ; [debug line = 25:22] [debug variable = i]
  br label %.preheader1011, !dbg !7886            ; [debug line = 25:22]

; <label>:15                                      ; preds = %.preheader1011
  %c = add i16 %op.assign.8, 1, !dbg !7888        ; [#uses=1 type=i16] [debug line = 24:21]
  call void @llvm.dbg.value(metadata !{i16 %c}, i64 0, metadata !7889), !dbg !7888 ; [debug line = 24:21] [debug variable = c]
  br label %1, !dbg !7888                         ; [debug line = 24:21]

; <label>:16                                      ; preds = %1
  ret void, !dbg !7890                            ; [debug line = 53:1]
}

!llvm.dbg.cu = !{!0}
!opencl.kernels = !{!7519, !7526, !7532, !7538, !7538, !7526, !7544, !7526, !7526, !7526, !7547, !7547, !7549, !7549, !7551, !7526, !7526, !7526, !7553, !7553, !7555, !7555, !7557, !7526, !7526, !7526, !7559, !7559, !7553, !7553, !7561, !7564, !7566, !7526, !7526, !7526, !7568, !7568, !7526, !7570, !7572, !7526, !7526, !7526, !7547, !7547, !7574, !7574, !7576, !7526, !7526, !7526, !7547, !7547, !7553, !7553, !7578, !7526, !7526, !7526, !7559, !7559, !7547, !7547, !7580, !7526, !7526, !7559, !7559, !7582, !7582, !7526, !7584, !7584, !7526, !7526, !7586, !7588, !7526, !7526, !7526, !7547, !7547, !7590, !7590, !7592, !7594, !7526, !7526, !7526, !7568, !7568, !7547, !7547, !7526, !7596, !7598, !7526, !7559, !7559, !7600, !7602, !7526, !7526}
!hls.encrypted.func = !{}
!llvm.map.gv = !{!7604}

!0 = metadata !{i32 786449, i32 0, i32 4, metadata !"E:/Exercise/FPGA/FPGA_CNN/01_mnist_cnn/hls/pool_core/solution1/.autopilot/db/pool_core.pragma.2.cpp", metadata !"E:\5CExercise\5CFPGA\5CFPGA_CNN\5C01_mnist_cnn\5Chls", metadata !"clang version 3.1 ", i1 true, i1 false, metadata !"", i32 0, metadata !1, metadata !871, metadata !873, metadata !5726} ; [ DW_TAG_compile_unit ]
!1 = metadata !{metadata !2}
!2 = metadata !{metadata !3, metadata !26, metadata !33, metadata !42, metadata !48, metadata !864}
!3 = metadata !{i32 786436, metadata !4, metadata !"_Ios_Fmtflags", metadata !5, i32 59, i64 17, i64 32, i32 0, i32 0, null, metadata !6, i32 0, i32 0} ; [ DW_TAG_enumeration_type ]
!4 = metadata !{i32 786489, null, metadata !"std", metadata !5, i32 53} ; [ DW_TAG_namespace ]
!5 = metadata !{i32 786473, metadata !"D:/ProgramData/Xilinx/SDx/2016.4/Vivado_HLS/win64/tools/clang/bin\5C..\5Clib\5Cclang\5C3.1/../../../include/c++/4.5.2\5Cbits/ios_base.h", metadata !"E:\5CExercise\5CFPGA\5CFPGA_CNN\5C01_mnist_cnn\5Chls", null} ; [ DW_TAG_file_type ]
!6 = metadata !{metadata !7, metadata !8, metadata !9, metadata !10, metadata !11, metadata !12, metadata !13, metadata !14, metadata !15, metadata !16, metadata !17, metadata !18, metadata !19, metadata !20, metadata !21, metadata !22, metadata !23, metadata !24, metadata !25}
!7 = metadata !{i32 786472, metadata !"_S_boolalpha", i64 1} ; [ DW_TAG_enumerator ]
!8 = metadata !{i32 786472, metadata !"_S_dec", i64 2} ; [ DW_TAG_enumerator ]
!9 = metadata !{i32 786472, metadata !"_S_fixed", i64 4} ; [ DW_TAG_enumerator ]
!10 = metadata !{i32 786472, metadata !"_S_hex", i64 8} ; [ DW_TAG_enumerator ]
!11 = metadata !{i32 786472, metadata !"_S_internal", i64 16} ; [ DW_TAG_enumerator ]
!12 = metadata !{i32 786472, metadata !"_S_left", i64 32} ; [ DW_TAG_enumerator ]
!13 = metadata !{i32 786472, metadata !"_S_oct", i64 64} ; [ DW_TAG_enumerator ]
!14 = metadata !{i32 786472, metadata !"_S_right", i64 128} ; [ DW_TAG_enumerator ]
!15 = metadata !{i32 786472, metadata !"_S_scientific", i64 256} ; [ DW_TAG_enumerator ]
!16 = metadata !{i32 786472, metadata !"_S_showbase", i64 512} ; [ DW_TAG_enumerator ]
!17 = metadata !{i32 786472, metadata !"_S_showpoint", i64 1024} ; [ DW_TAG_enumerator ]
!18 = metadata !{i32 786472, metadata !"_S_showpos", i64 2048} ; [ DW_TAG_enumerator ]
!19 = metadata !{i32 786472, metadata !"_S_skipws", i64 4096} ; [ DW_TAG_enumerator ]
!20 = metadata !{i32 786472, metadata !"_S_unitbuf", i64 8192} ; [ DW_TAG_enumerator ]
!21 = metadata !{i32 786472, metadata !"_S_uppercase", i64 16384} ; [ DW_TAG_enumerator ]
!22 = metadata !{i32 786472, metadata !"_S_adjustfield", i64 176} ; [ DW_TAG_enumerator ]
!23 = metadata !{i32 786472, metadata !"_S_basefield", i64 74} ; [ DW_TAG_enumerator ]
!24 = metadata !{i32 786472, metadata !"_S_floatfield", i64 260} ; [ DW_TAG_enumerator ]
!25 = metadata !{i32 786472, metadata !"_S_ios_fmtflags_end", i64 65536} ; [ DW_TAG_enumerator ]
!26 = metadata !{i32 786436, metadata !4, metadata !"_Ios_Iostate", metadata !5, i32 151, i64 17, i64 32, i32 0, i32 0, null, metadata !27, i32 0, i32 0} ; [ DW_TAG_enumeration_type ]
!27 = metadata !{metadata !28, metadata !29, metadata !30, metadata !31, metadata !32}
!28 = metadata !{i32 786472, metadata !"_S_goodbit", i64 0} ; [ DW_TAG_enumerator ]
!29 = metadata !{i32 786472, metadata !"_S_badbit", i64 1} ; [ DW_TAG_enumerator ]
!30 = metadata !{i32 786472, metadata !"_S_eofbit", i64 2} ; [ DW_TAG_enumerator ]
!31 = metadata !{i32 786472, metadata !"_S_failbit", i64 4} ; [ DW_TAG_enumerator ]
!32 = metadata !{i32 786472, metadata !"_S_ios_iostate_end", i64 65536} ; [ DW_TAG_enumerator ]
!33 = metadata !{i32 786436, metadata !4, metadata !"_Ios_Openmode", metadata !5, i32 111, i64 17, i64 32, i32 0, i32 0, null, metadata !34, i32 0, i32 0} ; [ DW_TAG_enumeration_type ]
!34 = metadata !{metadata !35, metadata !36, metadata !37, metadata !38, metadata !39, metadata !40, metadata !41}
!35 = metadata !{i32 786472, metadata !"_S_app", i64 1} ; [ DW_TAG_enumerator ]
!36 = metadata !{i32 786472, metadata !"_S_ate", i64 2} ; [ DW_TAG_enumerator ]
!37 = metadata !{i32 786472, metadata !"_S_bin", i64 4} ; [ DW_TAG_enumerator ]
!38 = metadata !{i32 786472, metadata !"_S_in", i64 8} ; [ DW_TAG_enumerator ]
!39 = metadata !{i32 786472, metadata !"_S_out", i64 16} ; [ DW_TAG_enumerator ]
!40 = metadata !{i32 786472, metadata !"_S_trunc", i64 32} ; [ DW_TAG_enumerator ]
!41 = metadata !{i32 786472, metadata !"_S_ios_openmode_end", i64 65536} ; [ DW_TAG_enumerator ]
!42 = metadata !{i32 786436, metadata !4, metadata !"_Ios_Seekdir", metadata !5, i32 188, i64 17, i64 32, i32 0, i32 0, null, metadata !43, i32 0, i32 0} ; [ DW_TAG_enumeration_type ]
!43 = metadata !{metadata !44, metadata !45, metadata !46, metadata !47}
!44 = metadata !{i32 786472, metadata !"_S_beg", i64 0} ; [ DW_TAG_enumerator ]
!45 = metadata !{i32 786472, metadata !"_S_cur", i64 1} ; [ DW_TAG_enumerator ]
!46 = metadata !{i32 786472, metadata !"_S_end", i64 2} ; [ DW_TAG_enumerator ]
!47 = metadata !{i32 786472, metadata !"_S_ios_seekdir_end", i64 65536} ; [ DW_TAG_enumerator ]
!48 = metadata !{i32 786436, metadata !49, metadata !"event", metadata !5, i32 426, i64 2, i64 2, i32 0, i32 0, null, metadata !860, i32 0, i32 0} ; [ DW_TAG_enumeration_type ]
!49 = metadata !{i32 786434, metadata !4, metadata !"ios_base", metadata !5, i32 206, i64 896, i64 32, i32 0, i32 0, null, metadata !50, i32 0, metadata !49, null} ; [ DW_TAG_class_type ]
!50 = metadata !{metadata !51, metadata !57, metadata !62, metadata !63, metadata !65, metadata !67, metadata !68, metadata !94, metadata !105, metadata !109, metadata !110, metadata !112, metadata !792, metadata !796, metadata !799, metadata !802, metadata !806, metadata !807, metadata !812, metadata !815, metadata !816, metadata !819, metadata !822, metadata !825, metadata !828, metadata !829, metadata !830, metadata !833, metadata !836, metadata !839, metadata !842, metadata !843, metadata !847, metadata !851, metadata !852, metadata !853, metadata !857}
!51 = metadata !{i32 786445, metadata !5, metadata !"_vptr$ios_base", metadata !5, i32 0, i64 32, i64 0, i64 0, i32 0, metadata !52} ; [ DW_TAG_member ]
!52 = metadata !{i32 786447, null, metadata !"", null, i32 0, i64 32, i64 0, i64 0, i32 0, metadata !53} ; [ DW_TAG_pointer_type ]
!53 = metadata !{i32 786447, null, metadata !"__vtbl_ptr_type", null, i32 0, i64 32, i64 0, i64 0, i32 0, metadata !54} ; [ DW_TAG_pointer_type ]
!54 = metadata !{i32 786453, i32 0, metadata !"", i32 0, i32 0, i64 0, i64 0, i64 0, i32 0, null, metadata !55, i32 0, i32 0} ; [ DW_TAG_subroutine_type ]
!55 = metadata !{metadata !56}
!56 = metadata !{i32 786468, null, metadata !"int", null, i32 0, i64 32, i64 32, i64 0, i32 0, i32 5} ; [ DW_TAG_base_type ]
!57 = metadata !{i32 786445, metadata !49, metadata !"_M_precision", metadata !5, i32 459, i64 32, i64 32, i64 32, i32 2, metadata !58} ; [ DW_TAG_member ]
!58 = metadata !{i32 786454, metadata !59, metadata !"streamsize", metadata !5, i32 97, i64 0, i64 0, i64 0, i32 0, metadata !61} ; [ DW_TAG_typedef ]
!59 = metadata !{i32 786489, null, metadata !"std", metadata !60, i32 69} ; [ DW_TAG_namespace ]
!60 = metadata !{i32 786473, metadata !"D:/ProgramData/Xilinx/SDx/2016.4/Vivado_HLS/win64/tools/clang/bin\5C..\5Clib\5Cclang\5C3.1/../../../include/c++/4.5.2\5Cbits/postypes.h", metadata !"E:\5CExercise\5CFPGA\5CFPGA_CNN\5C01_mnist_cnn\5Chls", null} ; [ DW_TAG_file_type ]
!61 = metadata !{i32 786454, null, metadata !"ptrdiff_t", metadata !5, i32 31, i64 0, i64 0, i64 0, i32 0, metadata !56} ; [ DW_TAG_typedef ]
!62 = metadata !{i32 786445, metadata !49, metadata !"_M_width", metadata !5, i32 460, i64 32, i64 32, i64 64, i32 2, metadata !58} ; [ DW_TAG_member ]
!63 = metadata !{i32 786445, metadata !49, metadata !"_M_flags", metadata !5, i32 461, i64 17, i64 32, i64 96, i32 2, metadata !64} ; [ DW_TAG_member ]
!64 = metadata !{i32 786454, metadata !49, metadata !"fmtflags", metadata !5, i32 262, i64 0, i64 0, i64 0, i32 0, metadata !3} ; [ DW_TAG_typedef ]
!65 = metadata !{i32 786445, metadata !49, metadata !"_M_exception", metadata !5, i32 462, i64 17, i64 32, i64 128, i32 2, metadata !66} ; [ DW_TAG_member ]
!66 = metadata !{i32 786454, metadata !49, metadata !"iostate", metadata !5, i32 337, i64 0, i64 0, i64 0, i32 0, metadata !26} ; [ DW_TAG_typedef ]
!67 = metadata !{i32 786445, metadata !49, metadata !"_M_streambuf_state", metadata !5, i32 463, i64 17, i64 32, i64 160, i32 2, metadata !66} ; [ DW_TAG_member ]
!68 = metadata !{i32 786445, metadata !49, metadata !"_M_callbacks", metadata !5, i32 488, i64 32, i64 32, i64 192, i32 2, metadata !69} ; [ DW_TAG_member ]
!69 = metadata !{i32 786447, null, metadata !"", null, i32 0, i64 32, i64 32, i64 0, i32 0, metadata !70} ; [ DW_TAG_pointer_type ]
!70 = metadata !{i32 786434, metadata !49, metadata !"_Callback_list", metadata !5, i32 467, i64 128, i64 32, i32 0, i32 0, null, metadata !71, i32 0, null, null} ; [ DW_TAG_class_type ]
!71 = metadata !{metadata !72, metadata !73, metadata !79, metadata !80, metadata !82, metadata !88, metadata !91}
!72 = metadata !{i32 786445, metadata !70, metadata !"_M_next", metadata !5, i32 470, i64 32, i64 32, i64 0, i32 0, metadata !69} ; [ DW_TAG_member ]
!73 = metadata !{i32 786445, metadata !70, metadata !"_M_fn", metadata !5, i32 471, i64 32, i64 32, i64 32, i32 0, metadata !74} ; [ DW_TAG_member ]
!74 = metadata !{i32 786454, metadata !49, metadata !"event_callback", metadata !5, i32 443, i64 0, i64 0, i64 0, i32 0, metadata !75} ; [ DW_TAG_typedef ]
!75 = metadata !{i32 786447, null, metadata !"", null, i32 0, i64 32, i64 32, i64 0, i32 0, metadata !76} ; [ DW_TAG_pointer_type ]
!76 = metadata !{i32 786453, i32 0, metadata !"", i32 0, i32 0, i64 0, i64 0, i64 0, i32 0, null, metadata !77, i32 0, i32 0} ; [ DW_TAG_subroutine_type ]
!77 = metadata !{null, metadata !48, metadata !78, metadata !56}
!78 = metadata !{i32 786448, null, null, null, i32 0, i64 0, i64 0, i64 0, i32 0, metadata !49} ; [ DW_TAG_reference_type ]
!79 = metadata !{i32 786445, metadata !70, metadata !"_M_index", metadata !5, i32 472, i64 32, i64 32, i64 64, i32 0, metadata !56} ; [ DW_TAG_member ]
!80 = metadata !{i32 786445, metadata !70, metadata !"_M_refcount", metadata !5, i32 473, i64 32, i64 32, i64 96, i32 0, metadata !81} ; [ DW_TAG_member ]
!81 = metadata !{i32 786454, null, metadata !"_Atomic_word", metadata !5, i32 32, i64 0, i64 0, i64 0, i32 0, metadata !56} ; [ DW_TAG_typedef ]
!82 = metadata !{i32 786478, i32 0, metadata !70, metadata !"_Callback_list", metadata !"_Callback_list", metadata !"", metadata !5, i32 475, metadata !83, i1 false, i1 false, i32 0, i32 0, null, i32 256, i1 false, null, null, i32 0, metadata !86, i32 475} ; [ DW_TAG_subprogram ]
!83 = metadata !{i32 786453, i32 0, metadata !"", i32 0, i32 0, i64 0, i64 0, i64 0, i32 0, null, metadata !84, i32 0, i32 0} ; [ DW_TAG_subroutine_type ]
!84 = metadata !{null, metadata !85, metadata !74, metadata !56, metadata !69}
!85 = metadata !{i32 786447, i32 0, metadata !"", i32 0, i32 0, i64 32, i64 32, i64 0, i32 64, metadata !70} ; [ DW_TAG_pointer_type ]
!86 = metadata !{metadata !87}
!87 = metadata !{i32 786468}                      ; [ DW_TAG_base_type ]
!88 = metadata !{i32 786478, i32 0, metadata !70, metadata !"_M_add_reference", metadata !"_M_add_reference", metadata !"_ZNSt8ios_base14_Callback_list16_M_add_referenceEv", metadata !5, i32 480, metadata !89, i1 false, i1 false, i32 0, i32 0, null, i32 256, i1 false, null, null, i32 0, metadata !86, i32 480} ; [ DW_TAG_subprogram ]
!89 = metadata !{i32 786453, i32 0, metadata !"", i32 0, i32 0, i64 0, i64 0, i64 0, i32 0, null, metadata !90, i32 0, i32 0} ; [ DW_TAG_subroutine_type ]
!90 = metadata !{null, metadata !85}
!91 = metadata !{i32 786478, i32 0, metadata !70, metadata !"_M_remove_reference", metadata !"_M_remove_reference", metadata !"_ZNSt8ios_base14_Callback_list19_M_remove_referenceEv", metadata !5, i32 484, metadata !92, i1 false, i1 false, i32 0, i32 0, null, i32 256, i1 false, null, null, i32 0, metadata !86, i32 484} ; [ DW_TAG_subprogram ]
!92 = metadata !{i32 786453, i32 0, metadata !"", i32 0, i32 0, i64 0, i64 0, i64 0, i32 0, null, metadata !93, i32 0, i32 0} ; [ DW_TAG_subroutine_type ]
!93 = metadata !{metadata !56, metadata !85}
!94 = metadata !{i32 786445, metadata !49, metadata !"_M_word_zero", metadata !5, i32 505, i64 64, i64 32, i64 224, i32 2, metadata !95} ; [ DW_TAG_member ]
!95 = metadata !{i32 786434, metadata !49, metadata !"_Words", metadata !5, i32 497, i64 64, i64 32, i32 0, i32 0, null, metadata !96, i32 0, null, null} ; [ DW_TAG_class_type ]
!96 = metadata !{metadata !97, metadata !99, metadata !101}
!97 = metadata !{i32 786445, metadata !95, metadata !"_M_pword", metadata !5, i32 499, i64 32, i64 32, i64 0, i32 0, metadata !98} ; [ DW_TAG_member ]
!98 = metadata !{i32 786447, null, metadata !"", null, i32 0, i64 32, i64 32, i64 0, i32 0, null} ; [ DW_TAG_pointer_type ]
!99 = metadata !{i32 786445, metadata !95, metadata !"_M_iword", metadata !5, i32 500, i64 32, i64 32, i64 32, i32 0, metadata !100} ; [ DW_TAG_member ]
!100 = metadata !{i32 786468, null, metadata !"long int", null, i32 0, i64 32, i64 32, i64 0, i32 0, i32 5} ; [ DW_TAG_base_type ]
!101 = metadata !{i32 786478, i32 0, metadata !95, metadata !"_Words", metadata !"_Words", metadata !"", metadata !5, i32 501, metadata !102, i1 false, i1 false, i32 0, i32 0, null, i32 256, i1 false, null, null, i32 0, metadata !86, i32 501} ; [ DW_TAG_subprogram ]
!102 = metadata !{i32 786453, i32 0, metadata !"", i32 0, i32 0, i64 0, i64 0, i64 0, i32 0, null, metadata !103, i32 0, i32 0} ; [ DW_TAG_subroutine_type ]
!103 = metadata !{null, metadata !104}
!104 = metadata !{i32 786447, i32 0, metadata !"", i32 0, i32 0, i64 32, i64 32, i64 0, i32 64, metadata !95} ; [ DW_TAG_pointer_type ]
!105 = metadata !{i32 786445, metadata !49, metadata !"_M_local_word", metadata !5, i32 510, i64 512, i64 32, i64 288, i32 2, metadata !106} ; [ DW_TAG_member ]
!106 = metadata !{i32 786433, null, metadata !"", null, i32 0, i64 512, i64 32, i32 0, i32 0, metadata !95, metadata !107, i32 0, i32 0} ; [ DW_TAG_array_type ]
!107 = metadata !{metadata !108}
!108 = metadata !{i32 786465, i64 0, i64 7}       ; [ DW_TAG_subrange_type ]
!109 = metadata !{i32 786445, metadata !49, metadata !"_M_word_size", metadata !5, i32 513, i64 32, i64 32, i64 800, i32 2, metadata !56} ; [ DW_TAG_member ]
!110 = metadata !{i32 786445, metadata !49, metadata !"_M_word", metadata !5, i32 514, i64 32, i64 32, i64 832, i32 2, metadata !111} ; [ DW_TAG_member ]
!111 = metadata !{i32 786447, null, metadata !"", null, i32 0, i64 32, i64 32, i64 0, i32 0, metadata !95} ; [ DW_TAG_pointer_type ]
!112 = metadata !{i32 786445, metadata !49, metadata !"_M_ios_locale", metadata !5, i32 520, i64 32, i64 32, i64 864, i32 2, metadata !113} ; [ DW_TAG_member ]
!113 = metadata !{i32 786434, metadata !114, metadata !"locale", metadata !115, i32 61, i64 32, i64 32, i32 0, i32 0, null, metadata !116, i32 0, null, null} ; [ DW_TAG_class_type ]
!114 = metadata !{i32 786489, null, metadata !"std", metadata !115, i32 44} ; [ DW_TAG_namespace ]
!115 = metadata !{i32 786473, metadata !"D:/ProgramData/Xilinx/SDx/2016.4/Vivado_HLS/win64/tools/clang/bin\5C..\5Clib\5Cclang\5C3.1/../../../include/c++/4.5.2\5Cbits/locale_classes.h", metadata !"E:\5CExercise\5CFPGA\5CFPGA_CNN\5C01_mnist_cnn\5Chls", null} ; [ DW_TAG_file_type ]
!116 = metadata !{metadata !117, metadata !254, metadata !258, metadata !263, metadata !266, metadata !269, metadata !272, metadata !273, metadata !276, metadata !771, metadata !774, metadata !775, metadata !778, metadata !781, metadata !784, metadata !785, metadata !786, metadata !789, metadata !790, metadata !791}
!117 = metadata !{i32 786445, metadata !113, metadata !"_M_impl", metadata !115, i32 278, i64 32, i64 32, i64 0, i32 1, metadata !118} ; [ DW_TAG_member ]
!118 = metadata !{i32 786447, null, metadata !"", null, i32 0, i64 32, i64 32, i64 0, i32 0, metadata !119} ; [ DW_TAG_pointer_type ]
!119 = metadata !{i32 786434, metadata !113, metadata !"_Impl", metadata !115, i32 470, i64 160, i64 32, i32 0, i32 0, null, metadata !120, i32 0, null, null} ; [ DW_TAG_class_type ]
!120 = metadata !{metadata !121, metadata !122, metadata !183, metadata !184, metadata !185, metadata !188, metadata !192, metadata !193, metadata !198, metadata !201, metadata !204, metadata !205, metadata !208, metadata !209, metadata !213, metadata !218, metadata !243, metadata !246, metadata !249, metadata !252, metadata !253}
!121 = metadata !{i32 786445, metadata !119, metadata !"_M_refcount", metadata !115, i32 490, i64 32, i64 32, i64 0, i32 1, metadata !81} ; [ DW_TAG_member ]
!122 = metadata !{i32 786445, metadata !119, metadata !"_M_facets", metadata !115, i32 491, i64 32, i64 32, i64 32, i32 1, metadata !123} ; [ DW_TAG_member ]
!123 = metadata !{i32 786447, null, metadata !"", null, i32 0, i64 32, i64 32, i64 0, i32 0, metadata !124} ; [ DW_TAG_pointer_type ]
!124 = metadata !{i32 786447, null, metadata !"", null, i32 0, i64 32, i64 32, i64 0, i32 0, metadata !125} ; [ DW_TAG_pointer_type ]
!125 = metadata !{i32 786470, null, metadata !"", null, i32 0, i64 0, i64 0, i64 0, i32 0, metadata !126} ; [ DW_TAG_const_type ]
!126 = metadata !{i32 786434, metadata !113, metadata !"facet", metadata !115, i32 336, i64 64, i64 32, i32 0, i32 0, null, metadata !127, i32 0, metadata !126, null} ; [ DW_TAG_class_type ]
!127 = metadata !{metadata !128, metadata !129, metadata !130, metadata !133, metadata !139, metadata !142, metadata !153, metadata !156, metadata !159, metadata !162, metadata !165, metadata !168, metadata !172, metadata !173, metadata !177, metadata !181, metadata !182}
!128 = metadata !{i32 786445, metadata !115, metadata !"_vptr$facet", metadata !115, i32 0, i64 32, i64 0, i64 0, i32 0, metadata !52} ; [ DW_TAG_member ]
!129 = metadata !{i32 786445, metadata !126, metadata !"_M_refcount", metadata !115, i32 342, i64 32, i64 32, i64 32, i32 1, metadata !81} ; [ DW_TAG_member ]
!130 = metadata !{i32 786478, i32 0, metadata !126, metadata !"_S_initialize_once", metadata !"_S_initialize_once", metadata !"_ZNSt6locale5facet18_S_initialize_onceEv", metadata !115, i32 355, metadata !131, i1 false, i1 false, i32 0, i32 0, null, i32 257, i1 false, null, null, i32 0, metadata !86, i32 355} ; [ DW_TAG_subprogram ]
!131 = metadata !{i32 786453, i32 0, metadata !"", i32 0, i32 0, i64 0, i64 0, i64 0, i32 0, null, metadata !132, i32 0, i32 0} ; [ DW_TAG_subroutine_type ]
!132 = metadata !{null}
!133 = metadata !{i32 786478, i32 0, metadata !126, metadata !"facet", metadata !"facet", metadata !"", metadata !115, i32 368, metadata !134, i1 false, i1 false, i32 0, i32 0, null, i32 386, i1 false, null, null, i32 0, metadata !86, i32 368} ; [ DW_TAG_subprogram ]
!134 = metadata !{i32 786453, i32 0, metadata !"", i32 0, i32 0, i64 0, i64 0, i64 0, i32 0, null, metadata !135, i32 0, i32 0} ; [ DW_TAG_subroutine_type ]
!135 = metadata !{null, metadata !136, metadata !137}
!136 = metadata !{i32 786447, i32 0, metadata !"", i32 0, i32 0, i64 32, i64 32, i64 0, i32 64, metadata !126} ; [ DW_TAG_pointer_type ]
!137 = metadata !{i32 786454, null, metadata !"size_t", metadata !115, i32 35, i64 0, i64 0, i64 0, i32 0, metadata !138} ; [ DW_TAG_typedef ]
!138 = metadata !{i32 786468, null, metadata !"unsigned int", null, i32 0, i64 32, i64 32, i64 0, i32 0, i32 7} ; [ DW_TAG_base_type ]
!139 = metadata !{i32 786478, i32 0, metadata !126, metadata !"~facet", metadata !"~facet", metadata !"", metadata !115, i32 373, metadata !140, i1 false, i1 false, i32 1, i32 0, metadata !126, i32 258, i1 false, null, null, i32 0, metadata !86, i32 373} ; [ DW_TAG_subprogram ]
!140 = metadata !{i32 786453, i32 0, metadata !"", i32 0, i32 0, i64 0, i64 0, i64 0, i32 0, null, metadata !141, i32 0, i32 0} ; [ DW_TAG_subroutine_type ]
!141 = metadata !{null, metadata !136}
!142 = metadata !{i32 786478, i32 0, metadata !126, metadata !"_S_create_c_locale", metadata !"_S_create_c_locale", metadata !"_ZNSt6locale5facet18_S_create_c_localeERPiPKcS1_", metadata !115, i32 376, metadata !143, i1 false, i1 false, i32 0, i32 0, null, i32 258, i1 false, null, null, i32 0, metadata !86, i32 376} ; [ DW_TAG_subprogram ]
!143 = metadata !{i32 786453, i32 0, metadata !"", i32 0, i32 0, i64 0, i64 0, i64 0, i32 0, null, metadata !144, i32 0, i32 0} ; [ DW_TAG_subroutine_type ]
!144 = metadata !{null, metadata !145, metadata !150, metadata !146}
!145 = metadata !{i32 786448, null, null, null, i32 0, i64 0, i64 0, i64 0, i32 0, metadata !146} ; [ DW_TAG_reference_type ]
!146 = metadata !{i32 786454, metadata !147, metadata !"__c_locale", metadata !115, i32 48, i64 0, i64 0, i64 0, i32 0, metadata !149} ; [ DW_TAG_typedef ]
!147 = metadata !{i32 786489, null, metadata !"std", metadata !148, i32 46} ; [ DW_TAG_namespace ]
!148 = metadata !{i32 786473, metadata !"D:/ProgramData/Xilinx/SDx/2016.4/Vivado_HLS/win64/tools/clang/bin\5C..\5Clib\5Cclang\5C3.1/../../../include/c++/4.5.2/x86_64-w64-mingw32\5Cbits/c++locale.h", metadata !"E:\5CExercise\5CFPGA\5CFPGA_CNN\5C01_mnist_cnn\5Chls", null} ; [ DW_TAG_file_type ]
!149 = metadata !{i32 786447, null, metadata !"", null, i32 0, i64 32, i64 32, i64 0, i32 0, metadata !56} ; [ DW_TAG_pointer_type ]
!150 = metadata !{i32 786447, null, metadata !"", null, i32 0, i64 32, i64 32, i64 0, i32 0, metadata !151} ; [ DW_TAG_pointer_type ]
!151 = metadata !{i32 786470, null, metadata !"", null, i32 0, i64 0, i64 0, i64 0, i32 0, metadata !152} ; [ DW_TAG_const_type ]
!152 = metadata !{i32 786468, null, metadata !"char", null, i32 0, i64 8, i64 8, i64 0, i32 0, i32 6} ; [ DW_TAG_base_type ]
!153 = metadata !{i32 786478, i32 0, metadata !126, metadata !"_S_clone_c_locale", metadata !"_S_clone_c_locale", metadata !"_ZNSt6locale5facet17_S_clone_c_localeERPi", metadata !115, i32 380, metadata !154, i1 false, i1 false, i32 0, i32 0, null, i32 258, i1 false, null, null, i32 0, metadata !86, i32 380} ; [ DW_TAG_subprogram ]
!154 = metadata !{i32 786453, i32 0, metadata !"", i32 0, i32 0, i64 0, i64 0, i64 0, i32 0, null, metadata !155, i32 0, i32 0} ; [ DW_TAG_subroutine_type ]
!155 = metadata !{metadata !146, metadata !145}
!156 = metadata !{i32 786478, i32 0, metadata !126, metadata !"_S_destroy_c_locale", metadata !"_S_destroy_c_locale", metadata !"_ZNSt6locale5facet19_S_destroy_c_localeERPi", metadata !115, i32 383, metadata !157, i1 false, i1 false, i32 0, i32 0, null, i32 258, i1 false, null, null, i32 0, metadata !86, i32 383} ; [ DW_TAG_subprogram ]
!157 = metadata !{i32 786453, i32 0, metadata !"", i32 0, i32 0, i64 0, i64 0, i64 0, i32 0, null, metadata !158, i32 0, i32 0} ; [ DW_TAG_subroutine_type ]
!158 = metadata !{null, metadata !145}
!159 = metadata !{i32 786478, i32 0, metadata !126, metadata !"_S_lc_ctype_c_locale", metadata !"_S_lc_ctype_c_locale", metadata !"_ZNSt6locale5facet20_S_lc_ctype_c_localeEPiPKc", metadata !115, i32 386, metadata !160, i1 false, i1 false, i32 0, i32 0, null, i32 258, i1 false, null, null, i32 0, metadata !86, i32 386} ; [ DW_TAG_subprogram ]
!160 = metadata !{i32 786453, i32 0, metadata !"", i32 0, i32 0, i64 0, i64 0, i64 0, i32 0, null, metadata !161, i32 0, i32 0} ; [ DW_TAG_subroutine_type ]
!161 = metadata !{metadata !146, metadata !146, metadata !150}
!162 = metadata !{i32 786478, i32 0, metadata !126, metadata !"_S_get_c_locale", metadata !"_S_get_c_locale", metadata !"_ZNSt6locale5facet15_S_get_c_localeEv", metadata !115, i32 391, metadata !163, i1 false, i1 false, i32 0, i32 0, null, i32 258, i1 false, null, null, i32 0, metadata !86, i32 391} ; [ DW_TAG_subprogram ]
!163 = metadata !{i32 786453, i32 0, metadata !"", i32 0, i32 0, i64 0, i64 0, i64 0, i32 0, null, metadata !164, i32 0, i32 0} ; [ DW_TAG_subroutine_type ]
!164 = metadata !{metadata !146}
!165 = metadata !{i32 786478, i32 0, metadata !126, metadata !"_S_get_c_name", metadata !"_S_get_c_name", metadata !"_ZNSt6locale5facet13_S_get_c_nameEv", metadata !115, i32 394, metadata !166, i1 false, i1 false, i32 0, i32 0, null, i32 258, i1 false, null, null, i32 0, metadata !86, i32 394} ; [ DW_TAG_subprogram ]
!166 = metadata !{i32 786453, i32 0, metadata !"", i32 0, i32 0, i64 0, i64 0, i64 0, i32 0, null, metadata !167, i32 0, i32 0} ; [ DW_TAG_subroutine_type ]
!167 = metadata !{metadata !150}
!168 = metadata !{i32 786478, i32 0, metadata !126, metadata !"_M_add_reference", metadata !"_M_add_reference", metadata !"_ZNKSt6locale5facet16_M_add_referenceEv", metadata !115, i32 398, metadata !169, i1 false, i1 false, i32 0, i32 0, null, i32 257, i1 false, null, null, i32 0, metadata !86, i32 398} ; [ DW_TAG_subprogram ]
!169 = metadata !{i32 786453, i32 0, metadata !"", i32 0, i32 0, i64 0, i64 0, i64 0, i32 0, null, metadata !170, i32 0, i32 0} ; [ DW_TAG_subroutine_type ]
!170 = metadata !{null, metadata !171}
!171 = metadata !{i32 786447, i32 0, metadata !"", i32 0, i32 0, i64 32, i64 32, i64 0, i32 64, metadata !125} ; [ DW_TAG_pointer_type ]
!172 = metadata !{i32 786478, i32 0, metadata !126, metadata !"_M_remove_reference", metadata !"_M_remove_reference", metadata !"_ZNKSt6locale5facet19_M_remove_referenceEv", metadata !115, i32 402, metadata !169, i1 false, i1 false, i32 0, i32 0, null, i32 257, i1 false, null, null, i32 0, metadata !86, i32 402} ; [ DW_TAG_subprogram ]
!173 = metadata !{i32 786478, i32 0, metadata !126, metadata !"facet", metadata !"facet", metadata !"", metadata !115, i32 413, metadata !174, i1 false, i1 false, i32 0, i32 0, null, i32 257, i1 false, null, null, i32 0, metadata !86, i32 413} ; [ DW_TAG_subprogram ]
!174 = metadata !{i32 786453, i32 0, metadata !"", i32 0, i32 0, i64 0, i64 0, i64 0, i32 0, null, metadata !175, i32 0, i32 0} ; [ DW_TAG_subroutine_type ]
!175 = metadata !{null, metadata !136, metadata !176}
!176 = metadata !{i32 786448, null, null, null, i32 0, i64 0, i64 0, i64 0, i32 0, metadata !125} ; [ DW_TAG_reference_type ]
!177 = metadata !{i32 786478, i32 0, metadata !126, metadata !"operator=", metadata !"operator=", metadata !"_ZNSt6locale5facetaSERKS0_", metadata !115, i32 416, metadata !178, i1 false, i1 false, i32 0, i32 0, null, i32 257, i1 false, null, null, i32 0, metadata !86, i32 416} ; [ DW_TAG_subprogram ]
!178 = metadata !{i32 786453, i32 0, metadata !"", i32 0, i32 0, i64 0, i64 0, i64 0, i32 0, null, metadata !179, i32 0, i32 0} ; [ DW_TAG_subroutine_type ]
!179 = metadata !{metadata !180, metadata !136, metadata !176}
!180 = metadata !{i32 786448, null, null, null, i32 0, i64 0, i64 0, i64 0, i32 0, metadata !126} ; [ DW_TAG_reference_type ]
!181 = metadata !{i32 786474, metadata !126, null, metadata !115, i32 0, i64 0, i64 0, i64 0, i32 0, metadata !119} ; [ DW_TAG_friend ]
!182 = metadata !{i32 786474, metadata !126, null, metadata !115, i32 0, i64 0, i64 0, i64 0, i32 0, metadata !113} ; [ DW_TAG_friend ]
!183 = metadata !{i32 786445, metadata !119, metadata !"_M_facets_size", metadata !115, i32 492, i64 32, i64 32, i64 64, i32 1, metadata !137} ; [ DW_TAG_member ]
!184 = metadata !{i32 786445, metadata !119, metadata !"_M_caches", metadata !115, i32 493, i64 32, i64 32, i64 96, i32 1, metadata !123} ; [ DW_TAG_member ]
!185 = metadata !{i32 786445, metadata !119, metadata !"_M_names", metadata !115, i32 494, i64 32, i64 32, i64 128, i32 1, metadata !186} ; [ DW_TAG_member ]
!186 = metadata !{i32 786447, null, metadata !"", null, i32 0, i64 32, i64 32, i64 0, i32 0, metadata !187} ; [ DW_TAG_pointer_type ]
!187 = metadata !{i32 786447, null, metadata !"", null, i32 0, i64 32, i64 32, i64 0, i32 0, metadata !152} ; [ DW_TAG_pointer_type ]
!188 = metadata !{i32 786478, i32 0, metadata !119, metadata !"_M_add_reference", metadata !"_M_add_reference", metadata !"_ZNSt6locale5_Impl16_M_add_referenceEv", metadata !115, i32 504, metadata !189, i1 false, i1 false, i32 0, i32 0, null, i32 257, i1 false, null, null, i32 0, metadata !86, i32 504} ; [ DW_TAG_subprogram ]
!189 = metadata !{i32 786453, i32 0, metadata !"", i32 0, i32 0, i64 0, i64 0, i64 0, i32 0, null, metadata !190, i32 0, i32 0} ; [ DW_TAG_subroutine_type ]
!190 = metadata !{null, metadata !191}
!191 = metadata !{i32 786447, i32 0, metadata !"", i32 0, i32 0, i64 32, i64 32, i64 0, i32 64, metadata !119} ; [ DW_TAG_pointer_type ]
!192 = metadata !{i32 786478, i32 0, metadata !119, metadata !"_M_remove_reference", metadata !"_M_remove_reference", metadata !"_ZNSt6locale5_Impl19_M_remove_referenceEv", metadata !115, i32 508, metadata !189, i1 false, i1 false, i32 0, i32 0, null, i32 257, i1 false, null, null, i32 0, metadata !86, i32 508} ; [ DW_TAG_subprogram ]
!193 = metadata !{i32 786478, i32 0, metadata !119, metadata !"_Impl", metadata !"_Impl", metadata !"", metadata !115, i32 519, metadata !194, i1 false, i1 false, i32 0, i32 0, null, i32 257, i1 false, null, null, i32 0, metadata !86, i32 519} ; [ DW_TAG_subprogram ]
!194 = metadata !{i32 786453, i32 0, metadata !"", i32 0, i32 0, i64 0, i64 0, i64 0, i32 0, null, metadata !195, i32 0, i32 0} ; [ DW_TAG_subroutine_type ]
!195 = metadata !{null, metadata !191, metadata !196, metadata !137}
!196 = metadata !{i32 786448, null, null, null, i32 0, i64 0, i64 0, i64 0, i32 0, metadata !197} ; [ DW_TAG_reference_type ]
!197 = metadata !{i32 786470, null, metadata !"", null, i32 0, i64 0, i64 0, i64 0, i32 0, metadata !119} ; [ DW_TAG_const_type ]
!198 = metadata !{i32 786478, i32 0, metadata !119, metadata !"_Impl", metadata !"_Impl", metadata !"", metadata !115, i32 520, metadata !199, i1 false, i1 false, i32 0, i32 0, null, i32 257, i1 false, null, null, i32 0, metadata !86, i32 520} ; [ DW_TAG_subprogram ]
!199 = metadata !{i32 786453, i32 0, metadata !"", i32 0, i32 0, i64 0, i64 0, i64 0, i32 0, null, metadata !200, i32 0, i32 0} ; [ DW_TAG_subroutine_type ]
!200 = metadata !{null, metadata !191, metadata !150, metadata !137}
!201 = metadata !{i32 786478, i32 0, metadata !119, metadata !"_Impl", metadata !"_Impl", metadata !"", metadata !115, i32 521, metadata !202, i1 false, i1 false, i32 0, i32 0, null, i32 257, i1 false, null, null, i32 0, metadata !86, i32 521} ; [ DW_TAG_subprogram ]
!202 = metadata !{i32 786453, i32 0, metadata !"", i32 0, i32 0, i64 0, i64 0, i64 0, i32 0, null, metadata !203, i32 0, i32 0} ; [ DW_TAG_subroutine_type ]
!203 = metadata !{null, metadata !191, metadata !137}
!204 = metadata !{i32 786478, i32 0, metadata !119, metadata !"~_Impl", metadata !"~_Impl", metadata !"", metadata !115, i32 523, metadata !189, i1 false, i1 false, i32 0, i32 0, null, i32 257, i1 false, null, null, i32 0, metadata !86, i32 523} ; [ DW_TAG_subprogram ]
!205 = metadata !{i32 786478, i32 0, metadata !119, metadata !"_Impl", metadata !"_Impl", metadata !"", metadata !115, i32 525, metadata !206, i1 false, i1 false, i32 0, i32 0, null, i32 257, i1 false, null, null, i32 0, metadata !86, i32 525} ; [ DW_TAG_subprogram ]
!206 = metadata !{i32 786453, i32 0, metadata !"", i32 0, i32 0, i64 0, i64 0, i64 0, i32 0, null, metadata !207, i32 0, i32 0} ; [ DW_TAG_subroutine_type ]
!207 = metadata !{null, metadata !191, metadata !196}
!208 = metadata !{i32 786478, i32 0, metadata !119, metadata !"operator=", metadata !"operator=", metadata !"_ZNSt6locale5_ImplaSERKS0_", metadata !115, i32 528, metadata !206, i1 false, i1 false, i32 0, i32 0, null, i32 257, i1 false, null, null, i32 0, metadata !86, i32 528} ; [ DW_TAG_subprogram ]
!209 = metadata !{i32 786478, i32 0, metadata !119, metadata !"_M_check_same_name", metadata !"_M_check_same_name", metadata !"_ZNSt6locale5_Impl18_M_check_same_nameEv", metadata !115, i32 531, metadata !210, i1 false, i1 false, i32 0, i32 0, null, i32 257, i1 false, null, null, i32 0, metadata !86, i32 531} ; [ DW_TAG_subprogram ]
!210 = metadata !{i32 786453, i32 0, metadata !"", i32 0, i32 0, i64 0, i64 0, i64 0, i32 0, null, metadata !211, i32 0, i32 0} ; [ DW_TAG_subroutine_type ]
!211 = metadata !{metadata !212, metadata !191}
!212 = metadata !{i32 786468, null, metadata !"bool", null, i32 0, i64 8, i64 8, i64 0, i32 0, i32 2} ; [ DW_TAG_base_type ]
!213 = metadata !{i32 786478, i32 0, metadata !119, metadata !"_M_replace_categories", metadata !"_M_replace_categories", metadata !"_ZNSt6locale5_Impl21_M_replace_categoriesEPKS0_i", metadata !115, i32 542, metadata !214, i1 false, i1 false, i32 0, i32 0, null, i32 257, i1 false, null, null, i32 0, metadata !86, i32 542} ; [ DW_TAG_subprogram ]
!214 = metadata !{i32 786453, i32 0, metadata !"", i32 0, i32 0, i64 0, i64 0, i64 0, i32 0, null, metadata !215, i32 0, i32 0} ; [ DW_TAG_subroutine_type ]
!215 = metadata !{null, metadata !191, metadata !216, metadata !217}
!216 = metadata !{i32 786447, null, metadata !"", null, i32 0, i64 32, i64 32, i64 0, i32 0, metadata !197} ; [ DW_TAG_pointer_type ]
!217 = metadata !{i32 786454, metadata !113, metadata !"category", metadata !115, i32 66, i64 0, i64 0, i64 0, i32 0, metadata !56} ; [ DW_TAG_typedef ]
!218 = metadata !{i32 786478, i32 0, metadata !119, metadata !"_M_replace_category", metadata !"_M_replace_category", metadata !"_ZNSt6locale5_Impl19_M_replace_categoryEPKS0_PKPKNS_2idE", metadata !115, i32 545, metadata !219, i1 false, i1 false, i32 0, i32 0, null, i32 257, i1 false, null, null, i32 0, metadata !86, i32 545} ; [ DW_TAG_subprogram ]
!219 = metadata !{i32 786453, i32 0, metadata !"", i32 0, i32 0, i64 0, i64 0, i64 0, i32 0, null, metadata !220, i32 0, i32 0} ; [ DW_TAG_subroutine_type ]
!220 = metadata !{null, metadata !191, metadata !216, metadata !221}
!221 = metadata !{i32 786447, null, metadata !"", null, i32 0, i64 32, i64 32, i64 0, i32 0, metadata !222} ; [ DW_TAG_pointer_type ]
!222 = metadata !{i32 786470, null, metadata !"", null, i32 0, i64 0, i64 0, i64 0, i32 0, metadata !223} ; [ DW_TAG_const_type ]
!223 = metadata !{i32 786447, null, metadata !"", null, i32 0, i64 32, i64 32, i64 0, i32 0, metadata !224} ; [ DW_TAG_pointer_type ]
!224 = metadata !{i32 786470, null, metadata !"", null, i32 0, i64 0, i64 0, i64 0, i32 0, metadata !225} ; [ DW_TAG_const_type ]
!225 = metadata !{i32 786434, metadata !113, metadata !"id", metadata !115, i32 431, i64 32, i64 32, i32 0, i32 0, null, metadata !226, i32 0, null, null} ; [ DW_TAG_class_type ]
!226 = metadata !{metadata !227, metadata !228, metadata !233, metadata !234, metadata !237, metadata !241, metadata !242}
!227 = metadata !{i32 786445, metadata !225, metadata !"_M_index", metadata !115, i32 448, i64 32, i64 32, i64 0, i32 1, metadata !137} ; [ DW_TAG_member ]
!228 = metadata !{i32 786478, i32 0, metadata !225, metadata !"operator=", metadata !"operator=", metadata !"_ZNSt6locale2idaSERKS0_", metadata !115, i32 454, metadata !229, i1 false, i1 false, i32 0, i32 0, null, i32 257, i1 false, null, null, i32 0, metadata !86, i32 454} ; [ DW_TAG_subprogram ]
!229 = metadata !{i32 786453, i32 0, metadata !"", i32 0, i32 0, i64 0, i64 0, i64 0, i32 0, null, metadata !230, i32 0, i32 0} ; [ DW_TAG_subroutine_type ]
!230 = metadata !{null, metadata !231, metadata !232}
!231 = metadata !{i32 786447, i32 0, metadata !"", i32 0, i32 0, i64 32, i64 32, i64 0, i32 64, metadata !225} ; [ DW_TAG_pointer_type ]
!232 = metadata !{i32 786448, null, null, null, i32 0, i64 0, i64 0, i64 0, i32 0, metadata !224} ; [ DW_TAG_reference_type ]
!233 = metadata !{i32 786478, i32 0, metadata !225, metadata !"id", metadata !"id", metadata !"", metadata !115, i32 456, metadata !229, i1 false, i1 false, i32 0, i32 0, null, i32 257, i1 false, null, null, i32 0, metadata !86, i32 456} ; [ DW_TAG_subprogram ]
!234 = metadata !{i32 786478, i32 0, metadata !225, metadata !"id", metadata !"id", metadata !"", metadata !115, i32 462, metadata !235, i1 false, i1 false, i32 0, i32 0, null, i32 256, i1 false, null, null, i32 0, metadata !86, i32 462} ; [ DW_TAG_subprogram ]
!235 = metadata !{i32 786453, i32 0, metadata !"", i32 0, i32 0, i64 0, i64 0, i64 0, i32 0, null, metadata !236, i32 0, i32 0} ; [ DW_TAG_subroutine_type ]
!236 = metadata !{null, metadata !231}
!237 = metadata !{i32 786478, i32 0, metadata !225, metadata !"_M_id", metadata !"_M_id", metadata !"_ZNKSt6locale2id5_M_idEv", metadata !115, i32 465, metadata !238, i1 false, i1 false, i32 0, i32 0, null, i32 256, i1 false, null, null, i32 0, metadata !86, i32 465} ; [ DW_TAG_subprogram ]
!238 = metadata !{i32 786453, i32 0, metadata !"", i32 0, i32 0, i64 0, i64 0, i64 0, i32 0, null, metadata !239, i32 0, i32 0} ; [ DW_TAG_subroutine_type ]
!239 = metadata !{metadata !137, metadata !240}
!240 = metadata !{i32 786447, i32 0, metadata !"", i32 0, i32 0, i64 32, i64 32, i64 0, i32 64, metadata !224} ; [ DW_TAG_pointer_type ]
!241 = metadata !{i32 786474, metadata !225, null, metadata !115, i32 0, i64 0, i64 0, i64 0, i32 0, metadata !119} ; [ DW_TAG_friend ]
!242 = metadata !{i32 786474, metadata !225, null, metadata !115, i32 0, i64 0, i64 0, i64 0, i32 0, metadata !113} ; [ DW_TAG_friend ]
!243 = metadata !{i32 786478, i32 0, metadata !119, metadata !"_M_replace_facet", metadata !"_M_replace_facet", metadata !"_ZNSt6locale5_Impl16_M_replace_facetEPKS0_PKNS_2idE", metadata !115, i32 548, metadata !244, i1 false, i1 false, i32 0, i32 0, null, i32 257, i1 false, null, null, i32 0, metadata !86, i32 548} ; [ DW_TAG_subprogram ]
!244 = metadata !{i32 786453, i32 0, metadata !"", i32 0, i32 0, i64 0, i64 0, i64 0, i32 0, null, metadata !245, i32 0, i32 0} ; [ DW_TAG_subroutine_type ]
!245 = metadata !{null, metadata !191, metadata !216, metadata !223}
!246 = metadata !{i32 786478, i32 0, metadata !119, metadata !"_M_install_facet", metadata !"_M_install_facet", metadata !"_ZNSt6locale5_Impl16_M_install_facetEPKNS_2idEPKNS_5facetE", metadata !115, i32 551, metadata !247, i1 false, i1 false, i32 0, i32 0, null, i32 257, i1 false, null, null, i32 0, metadata !86, i32 551} ; [ DW_TAG_subprogram ]
!247 = metadata !{i32 786453, i32 0, metadata !"", i32 0, i32 0, i64 0, i64 0, i64 0, i32 0, null, metadata !248, i32 0, i32 0} ; [ DW_TAG_subroutine_type ]
!248 = metadata !{null, metadata !191, metadata !223, metadata !124}
!249 = metadata !{i32 786478, i32 0, metadata !119, metadata !"_M_install_cache", metadata !"_M_install_cache", metadata !"_ZNSt6locale5_Impl16_M_install_cacheEPKNS_5facetEj", metadata !115, i32 559, metadata !250, i1 false, i1 false, i32 0, i32 0, null, i32 257, i1 false, null, null, i32 0, metadata !86, i32 559} ; [ DW_TAG_subprogram ]
!250 = metadata !{i32 786453, i32 0, metadata !"", i32 0, i32 0, i64 0, i64 0, i64 0, i32 0, null, metadata !251, i32 0, i32 0} ; [ DW_TAG_subroutine_type ]
!251 = metadata !{null, metadata !191, metadata !124, metadata !137}
!252 = metadata !{i32 786474, metadata !119, null, metadata !115, i32 0, i64 0, i64 0, i64 0, i32 0, metadata !126} ; [ DW_TAG_friend ]
!253 = metadata !{i32 786474, metadata !119, null, metadata !115, i32 0, i64 0, i64 0, i64 0, i32 0, metadata !113} ; [ DW_TAG_friend ]
!254 = metadata !{i32 786478, i32 0, metadata !113, metadata !"locale", metadata !"locale", metadata !"", metadata !115, i32 116, metadata !255, i1 false, i1 false, i32 0, i32 0, null, i32 256, i1 false, null, null, i32 0, metadata !86, i32 116} ; [ DW_TAG_subprogram ]
!255 = metadata !{i32 786453, i32 0, metadata !"", i32 0, i32 0, i64 0, i64 0, i64 0, i32 0, null, metadata !256, i32 0, i32 0} ; [ DW_TAG_subroutine_type ]
!256 = metadata !{null, metadata !257}
!257 = metadata !{i32 786447, i32 0, metadata !"", i32 0, i32 0, i64 32, i64 32, i64 0, i32 64, metadata !113} ; [ DW_TAG_pointer_type ]
!258 = metadata !{i32 786478, i32 0, metadata !113, metadata !"locale", metadata !"locale", metadata !"", metadata !115, i32 125, metadata !259, i1 false, i1 false, i32 0, i32 0, null, i32 256, i1 false, null, null, i32 0, metadata !86, i32 125} ; [ DW_TAG_subprogram ]
!259 = metadata !{i32 786453, i32 0, metadata !"", i32 0, i32 0, i64 0, i64 0, i64 0, i32 0, null, metadata !260, i32 0, i32 0} ; [ DW_TAG_subroutine_type ]
!260 = metadata !{null, metadata !257, metadata !261}
!261 = metadata !{i32 786448, null, null, null, i32 0, i64 0, i64 0, i64 0, i32 0, metadata !262} ; [ DW_TAG_reference_type ]
!262 = metadata !{i32 786470, null, metadata !"", null, i32 0, i64 0, i64 0, i64 0, i32 0, metadata !113} ; [ DW_TAG_const_type ]
!263 = metadata !{i32 786478, i32 0, metadata !113, metadata !"locale", metadata !"locale", metadata !"", metadata !115, i32 136, metadata !264, i1 false, i1 false, i32 0, i32 0, null, i32 384, i1 false, null, null, i32 0, metadata !86, i32 136} ; [ DW_TAG_subprogram ]
!264 = metadata !{i32 786453, i32 0, metadata !"", i32 0, i32 0, i64 0, i64 0, i64 0, i32 0, null, metadata !265, i32 0, i32 0} ; [ DW_TAG_subroutine_type ]
!265 = metadata !{null, metadata !257, metadata !150}
!266 = metadata !{i32 786478, i32 0, metadata !113, metadata !"locale", metadata !"locale", metadata !"", metadata !115, i32 150, metadata !267, i1 false, i1 false, i32 0, i32 0, null, i32 256, i1 false, null, null, i32 0, metadata !86, i32 150} ; [ DW_TAG_subprogram ]
!267 = metadata !{i32 786453, i32 0, metadata !"", i32 0, i32 0, i64 0, i64 0, i64 0, i32 0, null, metadata !268, i32 0, i32 0} ; [ DW_TAG_subroutine_type ]
!268 = metadata !{null, metadata !257, metadata !261, metadata !150, metadata !217}
!269 = metadata !{i32 786478, i32 0, metadata !113, metadata !"locale", metadata !"locale", metadata !"", metadata !115, i32 163, metadata !270, i1 false, i1 false, i32 0, i32 0, null, i32 256, i1 false, null, null, i32 0, metadata !86, i32 163} ; [ DW_TAG_subprogram ]
!270 = metadata !{i32 786453, i32 0, metadata !"", i32 0, i32 0, i64 0, i64 0, i64 0, i32 0, null, metadata !271, i32 0, i32 0} ; [ DW_TAG_subroutine_type ]
!271 = metadata !{null, metadata !257, metadata !261, metadata !261, metadata !217}
!272 = metadata !{i32 786478, i32 0, metadata !113, metadata !"~locale", metadata !"~locale", metadata !"", metadata !115, i32 179, metadata !255, i1 false, i1 false, i32 0, i32 0, null, i32 256, i1 false, null, null, i32 0, metadata !86, i32 179} ; [ DW_TAG_subprogram ]
!273 = metadata !{i32 786478, i32 0, metadata !113, metadata !"operator=", metadata !"operator=", metadata !"_ZNSt6localeaSERKS_", metadata !115, i32 190, metadata !274, i1 false, i1 false, i32 0, i32 0, null, i32 256, i1 false, null, null, i32 0, metadata !86, i32 190} ; [ DW_TAG_subprogram ]
!274 = metadata !{i32 786453, i32 0, metadata !"", i32 0, i32 0, i64 0, i64 0, i64 0, i32 0, null, metadata !275, i32 0, i32 0} ; [ DW_TAG_subroutine_type ]
!275 = metadata !{metadata !261, metadata !257, metadata !261}
!276 = metadata !{i32 786478, i32 0, metadata !113, metadata !"name", metadata !"name", metadata !"_ZNKSt6locale4nameEv", metadata !115, i32 214, metadata !277, i1 false, i1 false, i32 0, i32 0, null, i32 256, i1 false, null, null, i32 0, metadata !86, i32 214} ; [ DW_TAG_subprogram ]
!277 = metadata !{i32 786453, i32 0, metadata !"", i32 0, i32 0, i64 0, i64 0, i64 0, i32 0, null, metadata !278, i32 0, i32 0} ; [ DW_TAG_subroutine_type ]
!278 = metadata !{metadata !279, metadata !770}
!279 = metadata !{i32 786454, metadata !280, metadata !"string", metadata !115, i32 62, i64 0, i64 0, i64 0, i32 0, metadata !282} ; [ DW_TAG_typedef ]
!280 = metadata !{i32 786489, null, metadata !"std", metadata !281, i32 42} ; [ DW_TAG_namespace ]
!281 = metadata !{i32 786473, metadata !"D:/ProgramData/Xilinx/SDx/2016.4/Vivado_HLS/win64/tools/clang/bin\5C..\5Clib\5Cclang\5C3.1/../../../include/c++/4.5.2\5Cbits/stringfwd.h", metadata !"E:\5CExercise\5CFPGA\5CFPGA_CNN\5C01_mnist_cnn\5Chls", null} ; [ DW_TAG_file_type ]
!282 = metadata !{i32 786434, metadata !280, metadata !"basic_string<char>", metadata !283, i32 1132, i64 32, i64 32, i32 0, i32 0, null, metadata !284, i32 0, null, metadata !714} ; [ DW_TAG_class_type ]
!283 = metadata !{i32 786473, metadata !"D:/ProgramData/Xilinx/SDx/2016.4/Vivado_HLS/win64/tools/clang/bin\5C..\5Clib\5Cclang\5C3.1/../../../include/c++/4.5.2\5Cbits/basic_string.tcc", metadata !"E:\5CExercise\5CFPGA\5CFPGA_CNN\5C01_mnist_cnn\5Chls", null} ; [ DW_TAG_file_type ]
!284 = metadata !{metadata !285, metadata !358, metadata !363, metadata !367, metadata !416, metadata !422, metadata !423, metadata !426, metadata !429, metadata !432, metadata !435, metadata !438, metadata !441, metadata !442, metadata !445, metadata !448, metadata !453, metadata !456, metadata !459, metadata !462, metadata !465, metadata !466, metadata !467, metadata !468, metadata !471, metadata !475, metadata !478, metadata !481, metadata !484, metadata !487, metadata !490, metadata !491, metadata !495, metadata !498, metadata !501, metadata !504, metadata !507, metadata !508, metadata !509, metadata !514, metadata !519, metadata !520, metadata !521, metadata !524, metadata !525, metadata !526, metadata !529, metadata !532, metadata !533, metadata !534, metadata !535, metadata !538, metadata !543, metadata !548, metadata !549, metadata !550, metadata !551, metadata !552, metadata !553, metadata !554, metadata !557, metadata !560, metadata !561, metadata !564, metadata !567, metadata !568, metadata !569, metadata !570, metadata !571, metadata !572, metadata !575, metadata !578, metadata !581, metadata !584, metadata !587, metadata !590, metadata !593, metadata !596, metadata !599, metadata !602, metadata !605, metadata !608, metadata !611, metadata !614, metadata !617, metadata !620, metadata !623, metadata !626, metadata !629, metadata !632, metadata !635, metadata !638, metadata !641, metadata !642, metadata !643, metadata !646, metadata !647, metadata !650, metadata !653, metadata !656, metadata !657, metadata !661, metadata !664, metadata !667, metadata !670, metadata !673, metadata !674, metadata !675, metadata !676, metadata !677, metadata !678, metadata !679, metadata !680, metadata !681, metadata !682, metadata !683, metadata !684, metadata !685, metadata !686, metadata !687, metadata !688, metadata !689, metadata !690, metadata !691, metadata !692, metadata !693, metadata !696, metadata !699, metadata !702, metadata !705, metadata !708, metadata !711}
!285 = metadata !{i32 786445, metadata !282, metadata !"_M_dataplus", metadata !286, i32 274, i64 32, i64 32, i64 0, i32 1, metadata !287} ; [ DW_TAG_member ]
!286 = metadata !{i32 786473, metadata !"D:/ProgramData/Xilinx/SDx/2016.4/Vivado_HLS/win64/tools/clang/bin\5C..\5Clib\5Cclang\5C3.1/../../../include/c++/4.5.2\5Cbits/basic_string.h", metadata !"E:\5CExercise\5CFPGA\5CFPGA_CNN\5C01_mnist_cnn\5Chls", null} ; [ DW_TAG_file_type ]
!287 = metadata !{i32 786434, metadata !282, metadata !"_Alloc_hider", metadata !286, i32 257, i64 32, i64 32, i32 0, i32 0, null, metadata !288, i32 0, null, null} ; [ DW_TAG_class_type ]
!288 = metadata !{metadata !289, metadata !353, metadata !354}
!289 = metadata !{i32 786460, metadata !287, null, metadata !286, i32 0, i64 0, i64 0, i64 0, i32 0, metadata !290} ; [ DW_TAG_inheritance ]
!290 = metadata !{i32 786434, metadata !280, metadata !"allocator<char>", metadata !291, i32 138, i64 8, i64 8, i32 0, i32 0, null, metadata !292, i32 0, null, metadata !351} ; [ DW_TAG_class_type ]
!291 = metadata !{i32 786473, metadata !"D:/ProgramData/Xilinx/SDx/2016.4/Vivado_HLS/win64/tools/clang/bin\5C..\5Clib\5Cclang\5C3.1/../../../include/c++/4.5.2\5Cbits/allocator.h", metadata !"E:\5CExercise\5CFPGA\5CFPGA_CNN\5C01_mnist_cnn\5Chls", null} ; [ DW_TAG_file_type ]
!292 = metadata !{metadata !293, metadata !341, metadata !345, metadata !350}
!293 = metadata !{i32 786460, metadata !290, null, metadata !291, i32 0, i64 0, i64 0, i64 0, i32 0, metadata !294} ; [ DW_TAG_inheritance ]
!294 = metadata !{i32 786434, metadata !295, metadata !"new_allocator<char>", metadata !296, i32 51, i64 8, i64 8, i32 0, i32 0, null, metadata !297, i32 0, null, metadata !339} ; [ DW_TAG_class_type ]
!295 = metadata !{i32 786489, null, metadata !"__gnu_cxx", metadata !296, i32 37} ; [ DW_TAG_namespace ]
!296 = metadata !{i32 786473, metadata !"D:/ProgramData/Xilinx/SDx/2016.4/Vivado_HLS/win64/tools/clang/bin\5C..\5Clib\5Cclang\5C3.1/../../../include/c++/4.5.2\5Cext/new_allocator.h", metadata !"E:\5CExercise\5CFPGA\5CFPGA_CNN\5C01_mnist_cnn\5Chls", null} ; [ DW_TAG_file_type ]
!297 = metadata !{metadata !298, metadata !302, metadata !307, metadata !308, metadata !315, metadata !321, metadata !327, metadata !330, metadata !333, metadata !336}
!298 = metadata !{i32 786478, i32 0, metadata !294, metadata !"new_allocator", metadata !"new_allocator", metadata !"", metadata !296, i32 66, metadata !299, i1 false, i1 false, i32 0, i32 0, null, i32 256, i1 false, null, null, i32 0, metadata !86, i32 66} ; [ DW_TAG_subprogram ]
!299 = metadata !{i32 786453, i32 0, metadata !"", i32 0, i32 0, i64 0, i64 0, i64 0, i32 0, null, metadata !300, i32 0, i32 0} ; [ DW_TAG_subroutine_type ]
!300 = metadata !{null, metadata !301}
!301 = metadata !{i32 786447, i32 0, metadata !"", i32 0, i32 0, i64 32, i64 32, i64 0, i32 64, metadata !294} ; [ DW_TAG_pointer_type ]
!302 = metadata !{i32 786478, i32 0, metadata !294, metadata !"new_allocator", metadata !"new_allocator", metadata !"", metadata !296, i32 68, metadata !303, i1 false, i1 false, i32 0, i32 0, null, i32 256, i1 false, null, null, i32 0, metadata !86, i32 68} ; [ DW_TAG_subprogram ]
!303 = metadata !{i32 786453, i32 0, metadata !"", i32 0, i32 0, i64 0, i64 0, i64 0, i32 0, null, metadata !304, i32 0, i32 0} ; [ DW_TAG_subroutine_type ]
!304 = metadata !{null, metadata !301, metadata !305}
!305 = metadata !{i32 786448, null, null, null, i32 0, i64 0, i64 0, i64 0, i32 0, metadata !306} ; [ DW_TAG_reference_type ]
!306 = metadata !{i32 786470, null, metadata !"", null, i32 0, i64 0, i64 0, i64 0, i32 0, metadata !294} ; [ DW_TAG_const_type ]
!307 = metadata !{i32 786478, i32 0, metadata !294, metadata !"~new_allocator", metadata !"~new_allocator", metadata !"", metadata !296, i32 73, metadata !299, i1 false, i1 false, i32 0, i32 0, null, i32 256, i1 false, null, null, i32 0, metadata !86, i32 73} ; [ DW_TAG_subprogram ]
!308 = metadata !{i32 786478, i32 0, metadata !294, metadata !"address", metadata !"address", metadata !"_ZNK9__gnu_cxx13new_allocatorIcE7addressERc", metadata !296, i32 76, metadata !309, i1 false, i1 false, i32 0, i32 0, null, i32 256, i1 false, null, null, i32 0, metadata !86, i32 76} ; [ DW_TAG_subprogram ]
!309 = metadata !{i32 786453, i32 0, metadata !"", i32 0, i32 0, i64 0, i64 0, i64 0, i32 0, null, metadata !310, i32 0, i32 0} ; [ DW_TAG_subroutine_type ]
!310 = metadata !{metadata !311, metadata !312, metadata !313}
!311 = metadata !{i32 786454, metadata !294, metadata !"pointer", metadata !296, i32 56, i64 0, i64 0, i64 0, i32 0, metadata !187} ; [ DW_TAG_typedef ]
!312 = metadata !{i32 786447, i32 0, metadata !"", i32 0, i32 0, i64 32, i64 32, i64 0, i32 64, metadata !306} ; [ DW_TAG_pointer_type ]
!313 = metadata !{i32 786454, metadata !294, metadata !"reference", metadata !296, i32 58, i64 0, i64 0, i64 0, i32 0, metadata !314} ; [ DW_TAG_typedef ]
!314 = metadata !{i32 786448, null, null, null, i32 0, i64 0, i64 0, i64 0, i32 0, metadata !152} ; [ DW_TAG_reference_type ]
!315 = metadata !{i32 786478, i32 0, metadata !294, metadata !"address", metadata !"address", metadata !"_ZNK9__gnu_cxx13new_allocatorIcE7addressERKc", metadata !296, i32 79, metadata !316, i1 false, i1 false, i32 0, i32 0, null, i32 256, i1 false, null, null, i32 0, metadata !86, i32 79} ; [ DW_TAG_subprogram ]
!316 = metadata !{i32 786453, i32 0, metadata !"", i32 0, i32 0, i64 0, i64 0, i64 0, i32 0, null, metadata !317, i32 0, i32 0} ; [ DW_TAG_subroutine_type ]
!317 = metadata !{metadata !318, metadata !312, metadata !319}
!318 = metadata !{i32 786454, metadata !294, metadata !"const_pointer", metadata !296, i32 57, i64 0, i64 0, i64 0, i32 0, metadata !150} ; [ DW_TAG_typedef ]
!319 = metadata !{i32 786454, metadata !294, metadata !"const_reference", metadata !296, i32 59, i64 0, i64 0, i64 0, i32 0, metadata !320} ; [ DW_TAG_typedef ]
!320 = metadata !{i32 786448, null, null, null, i32 0, i64 0, i64 0, i64 0, i32 0, metadata !151} ; [ DW_TAG_reference_type ]
!321 = metadata !{i32 786478, i32 0, metadata !294, metadata !"allocate", metadata !"allocate", metadata !"_ZN9__gnu_cxx13new_allocatorIcE8allocateEjPKv", metadata !296, i32 84, metadata !322, i1 false, i1 false, i32 0, i32 0, null, i32 256, i1 false, null, null, i32 0, metadata !86, i32 84} ; [ DW_TAG_subprogram ]
!322 = metadata !{i32 786453, i32 0, metadata !"", i32 0, i32 0, i64 0, i64 0, i64 0, i32 0, null, metadata !323, i32 0, i32 0} ; [ DW_TAG_subroutine_type ]
!323 = metadata !{metadata !311, metadata !301, metadata !324, metadata !325}
!324 = metadata !{i32 786454, null, metadata !"size_type", metadata !296, i32 54, i64 0, i64 0, i64 0, i32 0, metadata !137} ; [ DW_TAG_typedef ]
!325 = metadata !{i32 786447, null, metadata !"", null, i32 0, i64 32, i64 32, i64 0, i32 0, metadata !326} ; [ DW_TAG_pointer_type ]
!326 = metadata !{i32 786470, null, metadata !"", null, i32 0, i64 0, i64 0, i64 0, i32 0, null} ; [ DW_TAG_const_type ]
!327 = metadata !{i32 786478, i32 0, metadata !294, metadata !"deallocate", metadata !"deallocate", metadata !"_ZN9__gnu_cxx13new_allocatorIcE10deallocateEPcj", metadata !296, i32 94, metadata !328, i1 false, i1 false, i32 0, i32 0, null, i32 256, i1 false, null, null, i32 0, metadata !86, i32 94} ; [ DW_TAG_subprogram ]
!328 = metadata !{i32 786453, i32 0, metadata !"", i32 0, i32 0, i64 0, i64 0, i64 0, i32 0, null, metadata !329, i32 0, i32 0} ; [ DW_TAG_subroutine_type ]
!329 = metadata !{null, metadata !301, metadata !311, metadata !324}
!330 = metadata !{i32 786478, i32 0, metadata !294, metadata !"max_size", metadata !"max_size", metadata !"_ZNK9__gnu_cxx13new_allocatorIcE8max_sizeEv", metadata !296, i32 98, metadata !331, i1 false, i1 false, i32 0, i32 0, null, i32 256, i1 false, null, null, i32 0, metadata !86, i32 98} ; [ DW_TAG_subprogram ]
!331 = metadata !{i32 786453, i32 0, metadata !"", i32 0, i32 0, i64 0, i64 0, i64 0, i32 0, null, metadata !332, i32 0, i32 0} ; [ DW_TAG_subroutine_type ]
!332 = metadata !{metadata !324, metadata !312}
!333 = metadata !{i32 786478, i32 0, metadata !294, metadata !"construct", metadata !"construct", metadata !"_ZN9__gnu_cxx13new_allocatorIcE9constructEPcRKc", metadata !296, i32 104, metadata !334, i1 false, i1 false, i32 0, i32 0, null, i32 256, i1 false, null, null, i32 0, metadata !86, i32 104} ; [ DW_TAG_subprogram ]
!334 = metadata !{i32 786453, i32 0, metadata !"", i32 0, i32 0, i64 0, i64 0, i64 0, i32 0, null, metadata !335, i32 0, i32 0} ; [ DW_TAG_subroutine_type ]
!335 = metadata !{null, metadata !301, metadata !311, metadata !320}
!336 = metadata !{i32 786478, i32 0, metadata !294, metadata !"destroy", metadata !"destroy", metadata !"_ZN9__gnu_cxx13new_allocatorIcE7destroyEPc", metadata !296, i32 115, metadata !337, i1 false, i1 false, i32 0, i32 0, null, i32 256, i1 false, null, null, i32 0, metadata !86, i32 115} ; [ DW_TAG_subprogram ]
!337 = metadata !{i32 786453, i32 0, metadata !"", i32 0, i32 0, i64 0, i64 0, i64 0, i32 0, null, metadata !338, i32 0, i32 0} ; [ DW_TAG_subroutine_type ]
!338 = metadata !{null, metadata !301, metadata !311}
!339 = metadata !{metadata !340}
!340 = metadata !{i32 786479, null, metadata !"_Tp", metadata !152, null, i32 0, i32 0} ; [ DW_TAG_template_type_parameter ]
!341 = metadata !{i32 786478, i32 0, metadata !290, metadata !"allocator", metadata !"allocator", metadata !"", metadata !291, i32 101, metadata !342, i1 false, i1 false, i32 0, i32 0, null, i32 256, i1 false, null, null, i32 0, metadata !86, i32 101} ; [ DW_TAG_subprogram ]
!342 = metadata !{i32 786453, i32 0, metadata !"", i32 0, i32 0, i64 0, i64 0, i64 0, i32 0, null, metadata !343, i32 0, i32 0} ; [ DW_TAG_subroutine_type ]
!343 = metadata !{null, metadata !344}
!344 = metadata !{i32 786447, i32 0, metadata !"", i32 0, i32 0, i64 32, i64 32, i64 0, i32 64, metadata !290} ; [ DW_TAG_pointer_type ]
!345 = metadata !{i32 786478, i32 0, metadata !290, metadata !"allocator", metadata !"allocator", metadata !"", metadata !291, i32 103, metadata !346, i1 false, i1 false, i32 0, i32 0, null, i32 256, i1 false, null, null, i32 0, metadata !86, i32 103} ; [ DW_TAG_subprogram ]
!346 = metadata !{i32 786453, i32 0, metadata !"", i32 0, i32 0, i64 0, i64 0, i64 0, i32 0, null, metadata !347, i32 0, i32 0} ; [ DW_TAG_subroutine_type ]
!347 = metadata !{null, metadata !344, metadata !348}
!348 = metadata !{i32 786448, null, null, null, i32 0, i64 0, i64 0, i64 0, i32 0, metadata !349} ; [ DW_TAG_reference_type ]
!349 = metadata !{i32 786470, null, metadata !"", null, i32 0, i64 0, i64 0, i64 0, i32 0, metadata !290} ; [ DW_TAG_const_type ]
!350 = metadata !{i32 786478, i32 0, metadata !290, metadata !"~allocator", metadata !"~allocator", metadata !"", metadata !291, i32 109, metadata !342, i1 false, i1 false, i32 0, i32 0, null, i32 256, i1 false, null, null, i32 0, metadata !86, i32 109} ; [ DW_TAG_subprogram ]
!351 = metadata !{metadata !352}
!352 = metadata !{i32 786479, null, metadata !"_Alloc", metadata !152, null, i32 0, i32 0} ; [ DW_TAG_template_type_parameter ]
!353 = metadata !{i32 786445, metadata !287, metadata !"_M_p", metadata !286, i32 262, i64 32, i64 32, i64 0, i32 0, metadata !187} ; [ DW_TAG_member ]
!354 = metadata !{i32 786478, i32 0, metadata !287, metadata !"_Alloc_hider", metadata !"_Alloc_hider", metadata !"", metadata !286, i32 259, metadata !355, i1 false, i1 false, i32 0, i32 0, null, i32 256, i1 false, null, null, i32 0, metadata !86, i32 259} ; [ DW_TAG_subprogram ]
!355 = metadata !{i32 786453, i32 0, metadata !"", i32 0, i32 0, i64 0, i64 0, i64 0, i32 0, null, metadata !356, i32 0, i32 0} ; [ DW_TAG_subroutine_type ]
!356 = metadata !{null, metadata !357, metadata !187, metadata !348}
!357 = metadata !{i32 786447, i32 0, metadata !"", i32 0, i32 0, i64 32, i64 32, i64 0, i32 64, metadata !287} ; [ DW_TAG_pointer_type ]
!358 = metadata !{i32 786478, i32 0, metadata !282, metadata !"_M_data", metadata !"_M_data", metadata !"_ZNKSs7_M_dataEv", metadata !286, i32 277, metadata !359, i1 false, i1 false, i32 0, i32 0, null, i32 257, i1 false, null, null, i32 0, metadata !86, i32 277} ; [ DW_TAG_subprogram ]
!359 = metadata !{i32 786453, i32 0, metadata !"", i32 0, i32 0, i64 0, i64 0, i64 0, i32 0, null, metadata !360, i32 0, i32 0} ; [ DW_TAG_subroutine_type ]
!360 = metadata !{metadata !187, metadata !361}
!361 = metadata !{i32 786447, i32 0, metadata !"", i32 0, i32 0, i64 32, i64 32, i64 0, i32 64, metadata !362} ; [ DW_TAG_pointer_type ]
!362 = metadata !{i32 786470, null, metadata !"", null, i32 0, i64 0, i64 0, i64 0, i32 0, metadata !282} ; [ DW_TAG_const_type ]
!363 = metadata !{i32 786478, i32 0, metadata !282, metadata !"_M_data", metadata !"_M_data", metadata !"_ZNSs7_M_dataEPc", metadata !286, i32 281, metadata !364, i1 false, i1 false, i32 0, i32 0, null, i32 257, i1 false, null, null, i32 0, metadata !86, i32 281} ; [ DW_TAG_subprogram ]
!364 = metadata !{i32 786453, i32 0, metadata !"", i32 0, i32 0, i64 0, i64 0, i64 0, i32 0, null, metadata !365, i32 0, i32 0} ; [ DW_TAG_subroutine_type ]
!365 = metadata !{metadata !187, metadata !366, metadata !187}
!366 = metadata !{i32 786447, i32 0, metadata !"", i32 0, i32 0, i64 32, i64 32, i64 0, i32 64, metadata !282} ; [ DW_TAG_pointer_type ]
!367 = metadata !{i32 786478, i32 0, metadata !282, metadata !"_M_rep", metadata !"_M_rep", metadata !"_ZNKSs6_M_repEv", metadata !286, i32 285, metadata !368, i1 false, i1 false, i32 0, i32 0, null, i32 257, i1 false, null, null, i32 0, metadata !86, i32 285} ; [ DW_TAG_subprogram ]
!368 = metadata !{i32 786453, i32 0, metadata !"", i32 0, i32 0, i64 0, i64 0, i64 0, i32 0, null, metadata !369, i32 0, i32 0} ; [ DW_TAG_subroutine_type ]
!369 = metadata !{metadata !370, metadata !361}
!370 = metadata !{i32 786447, null, metadata !"", null, i32 0, i64 32, i64 32, i64 0, i32 0, metadata !371} ; [ DW_TAG_pointer_type ]
!371 = metadata !{i32 786434, metadata !282, metadata !"_Rep", metadata !286, i32 147, i64 96, i64 32, i32 0, i32 0, null, metadata !372, i32 0, null, null} ; [ DW_TAG_class_type ]
!372 = metadata !{metadata !373, metadata !381, metadata !385, metadata !390, metadata !391, metadata !395, metadata !396, metadata !399, metadata !402, metadata !405, metadata !408, metadata !411, metadata !412, metadata !413}
!373 = metadata !{i32 786460, metadata !371, null, metadata !286, i32 0, i64 0, i64 0, i64 0, i32 0, metadata !374} ; [ DW_TAG_inheritance ]
!374 = metadata !{i32 786434, metadata !282, metadata !"_Rep_base", metadata !286, i32 140, i64 96, i64 32, i32 0, i32 0, null, metadata !375, i32 0, null, null} ; [ DW_TAG_class_type ]
!375 = metadata !{metadata !376, metadata !379, metadata !380}
!376 = metadata !{i32 786445, metadata !374, metadata !"_M_length", metadata !286, i32 142, i64 32, i64 32, i64 0, i32 0, metadata !377} ; [ DW_TAG_member ]
!377 = metadata !{i32 786454, metadata !282, metadata !"size_type", metadata !286, i32 113, i64 0, i64 0, i64 0, i32 0, metadata !378} ; [ DW_TAG_typedef ]
!378 = metadata !{i32 786454, metadata !290, metadata !"size_type", metadata !286, i32 89, i64 0, i64 0, i64 0, i32 0, metadata !137} ; [ DW_TAG_typedef ]
!379 = metadata !{i32 786445, metadata !374, metadata !"_M_capacity", metadata !286, i32 143, i64 32, i64 32, i64 32, i32 0, metadata !377} ; [ DW_TAG_member ]
!380 = metadata !{i32 786445, metadata !374, metadata !"_M_refcount", metadata !286, i32 144, i64 32, i64 32, i64 64, i32 0, metadata !81} ; [ DW_TAG_member ]
!381 = metadata !{i32 786478, i32 0, metadata !371, metadata !"_S_empty_rep", metadata !"_S_empty_rep", metadata !"_ZNSs4_Rep12_S_empty_repEv", metadata !286, i32 173, metadata !382, i1 false, i1 false, i32 0, i32 0, null, i32 256, i1 false, null, null, i32 0, metadata !86, i32 173} ; [ DW_TAG_subprogram ]
!382 = metadata !{i32 786453, i32 0, metadata !"", i32 0, i32 0, i64 0, i64 0, i64 0, i32 0, null, metadata !383, i32 0, i32 0} ; [ DW_TAG_subroutine_type ]
!383 = metadata !{metadata !384}
!384 = metadata !{i32 786448, null, null, null, i32 0, i64 0, i64 0, i64 0, i32 0, metadata !371} ; [ DW_TAG_reference_type ]
!385 = metadata !{i32 786478, i32 0, metadata !371, metadata !"_M_is_leaked", metadata !"_M_is_leaked", metadata !"_ZNKSs4_Rep12_M_is_leakedEv", metadata !286, i32 183, metadata !386, i1 false, i1 false, i32 0, i32 0, null, i32 256, i1 false, null, null, i32 0, metadata !86, i32 183} ; [ DW_TAG_subprogram ]
!386 = metadata !{i32 786453, i32 0, metadata !"", i32 0, i32 0, i64 0, i64 0, i64 0, i32 0, null, metadata !387, i32 0, i32 0} ; [ DW_TAG_subroutine_type ]
!387 = metadata !{metadata !212, metadata !388}
!388 = metadata !{i32 786447, i32 0, metadata !"", i32 0, i32 0, i64 32, i64 32, i64 0, i32 64, metadata !389} ; [ DW_TAG_pointer_type ]
!389 = metadata !{i32 786470, null, metadata !"", null, i32 0, i64 0, i64 0, i64 0, i32 0, metadata !371} ; [ DW_TAG_const_type ]
!390 = metadata !{i32 786478, i32 0, metadata !371, metadata !"_M_is_shared", metadata !"_M_is_shared", metadata !"_ZNKSs4_Rep12_M_is_sharedEv", metadata !286, i32 187, metadata !386, i1 false, i1 false, i32 0, i32 0, null, i32 256, i1 false, null, null, i32 0, metadata !86, i32 187} ; [ DW_TAG_subprogram ]
!391 = metadata !{i32 786478, i32 0, metadata !371, metadata !"_M_set_leaked", metadata !"_M_set_leaked", metadata !"_ZNSs4_Rep13_M_set_leakedEv", metadata !286, i32 191, metadata !392, i1 false, i1 false, i32 0, i32 0, null, i32 256, i1 false, null, null, i32 0, metadata !86, i32 191} ; [ DW_TAG_subprogram ]
!392 = metadata !{i32 786453, i32 0, metadata !"", i32 0, i32 0, i64 0, i64 0, i64 0, i32 0, null, metadata !393, i32 0, i32 0} ; [ DW_TAG_subroutine_type ]
!393 = metadata !{null, metadata !394}
!394 = metadata !{i32 786447, i32 0, metadata !"", i32 0, i32 0, i64 32, i64 32, i64 0, i32 64, metadata !371} ; [ DW_TAG_pointer_type ]
!395 = metadata !{i32 786478, i32 0, metadata !371, metadata !"_M_set_sharable", metadata !"_M_set_sharable", metadata !"_ZNSs4_Rep15_M_set_sharableEv", metadata !286, i32 195, metadata !392, i1 false, i1 false, i32 0, i32 0, null, i32 256, i1 false, null, null, i32 0, metadata !86, i32 195} ; [ DW_TAG_subprogram ]
!396 = metadata !{i32 786478, i32 0, metadata !371, metadata !"_M_set_length_and_sharable", metadata !"_M_set_length_and_sharable", metadata !"_ZNSs4_Rep26_M_set_length_and_sharableEj", metadata !286, i32 199, metadata !397, i1 false, i1 false, i32 0, i32 0, null, i32 256, i1 false, null, null, i32 0, metadata !86, i32 199} ; [ DW_TAG_subprogram ]
!397 = metadata !{i32 786453, i32 0, metadata !"", i32 0, i32 0, i64 0, i64 0, i64 0, i32 0, null, metadata !398, i32 0, i32 0} ; [ DW_TAG_subroutine_type ]
!398 = metadata !{null, metadata !394, metadata !377}
!399 = metadata !{i32 786478, i32 0, metadata !371, metadata !"_M_refdata", metadata !"_M_refdata", metadata !"_ZNSs4_Rep10_M_refdataEv", metadata !286, i32 214, metadata !400, i1 false, i1 false, i32 0, i32 0, null, i32 256, i1 false, null, null, i32 0, metadata !86, i32 214} ; [ DW_TAG_subprogram ]
!400 = metadata !{i32 786453, i32 0, metadata !"", i32 0, i32 0, i64 0, i64 0, i64 0, i32 0, null, metadata !401, i32 0, i32 0} ; [ DW_TAG_subroutine_type ]
!401 = metadata !{metadata !187, metadata !394}
!402 = metadata !{i32 786478, i32 0, metadata !371, metadata !"_M_grab", metadata !"_M_grab", metadata !"_ZNSs4_Rep7_M_grabERKSaIcES2_", metadata !286, i32 218, metadata !403, i1 false, i1 false, i32 0, i32 0, null, i32 256, i1 false, null, null, i32 0, metadata !86, i32 218} ; [ DW_TAG_subprogram ]
!403 = metadata !{i32 786453, i32 0, metadata !"", i32 0, i32 0, i64 0, i64 0, i64 0, i32 0, null, metadata !404, i32 0, i32 0} ; [ DW_TAG_subroutine_type ]
!404 = metadata !{metadata !187, metadata !394, metadata !348, metadata !348}
!405 = metadata !{i32 786478, i32 0, metadata !371, metadata !"_S_create", metadata !"_S_create", metadata !"_ZNSs4_Rep9_S_createEjjRKSaIcE", metadata !286, i32 226, metadata !406, i1 false, i1 false, i32 0, i32 0, null, i32 256, i1 false, null, null, i32 0, metadata !86, i32 226} ; [ DW_TAG_subprogram ]
!406 = metadata !{i32 786453, i32 0, metadata !"", i32 0, i32 0, i64 0, i64 0, i64 0, i32 0, null, metadata !407, i32 0, i32 0} ; [ DW_TAG_subroutine_type ]
!407 = metadata !{metadata !370, metadata !377, metadata !377, metadata !348}
!408 = metadata !{i32 786478, i32 0, metadata !371, metadata !"_M_dispose", metadata !"_M_dispose", metadata !"_ZNSs4_Rep10_M_disposeERKSaIcE", metadata !286, i32 229, metadata !409, i1 false, i1 false, i32 0, i32 0, null, i32 256, i1 false, null, null, i32 0, metadata !86, i32 229} ; [ DW_TAG_subprogram ]
!409 = metadata !{i32 786453, i32 0, metadata !"", i32 0, i32 0, i64 0, i64 0, i64 0, i32 0, null, metadata !410, i32 0, i32 0} ; [ DW_TAG_subroutine_type ]
!410 = metadata !{null, metadata !394, metadata !348}
!411 = metadata !{i32 786478, i32 0, metadata !371, metadata !"_M_destroy", metadata !"_M_destroy", metadata !"_ZNSs4_Rep10_M_destroyERKSaIcE", metadata !286, i32 240, metadata !409, i1 false, i1 false, i32 0, i32 0, null, i32 256, i1 false, null, null, i32 0, metadata !86, i32 240} ; [ DW_TAG_subprogram ]
!412 = metadata !{i32 786478, i32 0, metadata !371, metadata !"_M_refcopy", metadata !"_M_refcopy", metadata !"_ZNSs4_Rep10_M_refcopyEv", metadata !286, i32 243, metadata !400, i1 false, i1 false, i32 0, i32 0, null, i32 256, i1 false, null, null, i32 0, metadata !86, i32 243} ; [ DW_TAG_subprogram ]
!413 = metadata !{i32 786478, i32 0, metadata !371, metadata !"_M_clone", metadata !"_M_clone", metadata !"_ZNSs4_Rep8_M_cloneERKSaIcEj", metadata !286, i32 253, metadata !414, i1 false, i1 false, i32 0, i32 0, null, i32 256, i1 false, null, null, i32 0, metadata !86, i32 253} ; [ DW_TAG_subprogram ]
!414 = metadata !{i32 786453, i32 0, metadata !"", i32 0, i32 0, i64 0, i64 0, i64 0, i32 0, null, metadata !415, i32 0, i32 0} ; [ DW_TAG_subroutine_type ]
!415 = metadata !{metadata !187, metadata !394, metadata !348, metadata !377}
!416 = metadata !{i32 786478, i32 0, metadata !282, metadata !"_M_ibegin", metadata !"_M_ibegin", metadata !"_ZNKSs9_M_ibeginEv", metadata !286, i32 291, metadata !417, i1 false, i1 false, i32 0, i32 0, null, i32 257, i1 false, null, null, i32 0, metadata !86, i32 291} ; [ DW_TAG_subprogram ]
!417 = metadata !{i32 786453, i32 0, metadata !"", i32 0, i32 0, i64 0, i64 0, i64 0, i32 0, null, metadata !418, i32 0, i32 0} ; [ DW_TAG_subroutine_type ]
!418 = metadata !{metadata !419, metadata !361}
!419 = metadata !{i32 786454, metadata !282, metadata !"iterator", metadata !283, i32 119, i64 0, i64 0, i64 0, i32 0, metadata !420} ; [ DW_TAG_typedef ]
!420 = metadata !{i32 786434, null, metadata !"__normal_iterator<char *, std::basic_string<char> >", metadata !421, i32 697, i32 0, i32 0, i32 0, i32 4, null, null, i32 0} ; [ DW_TAG_class_type ]
!421 = metadata !{i32 786473, metadata !"D:/ProgramData/Xilinx/SDx/2016.4/Vivado_HLS/win64/tools/clang/bin\5C..\5Clib\5Cclang\5C3.1/../../../include/c++/4.5.2\5Cbits/stl_iterator.h", metadata !"E:\5CExercise\5CFPGA\5CFPGA_CNN\5C01_mnist_cnn\5Chls", null} ; [ DW_TAG_file_type ]
!422 = metadata !{i32 786478, i32 0, metadata !282, metadata !"_M_iend", metadata !"_M_iend", metadata !"_ZNKSs7_M_iendEv", metadata !286, i32 295, metadata !417, i1 false, i1 false, i32 0, i32 0, null, i32 257, i1 false, null, null, i32 0, metadata !86, i32 295} ; [ DW_TAG_subprogram ]
!423 = metadata !{i32 786478, i32 0, metadata !282, metadata !"_M_leak", metadata !"_M_leak", metadata !"_ZNSs7_M_leakEv", metadata !286, i32 299, metadata !424, i1 false, i1 false, i32 0, i32 0, null, i32 257, i1 false, null, null, i32 0, metadata !86, i32 299} ; [ DW_TAG_subprogram ]
!424 = metadata !{i32 786453, i32 0, metadata !"", i32 0, i32 0, i64 0, i64 0, i64 0, i32 0, null, metadata !425, i32 0, i32 0} ; [ DW_TAG_subroutine_type ]
!425 = metadata !{null, metadata !366}
!426 = metadata !{i32 786478, i32 0, metadata !282, metadata !"_M_check", metadata !"_M_check", metadata !"_ZNKSs8_M_checkEjPKc", metadata !286, i32 306, metadata !427, i1 false, i1 false, i32 0, i32 0, null, i32 257, i1 false, null, null, i32 0, metadata !86, i32 306} ; [ DW_TAG_subprogram ]
!427 = metadata !{i32 786453, i32 0, metadata !"", i32 0, i32 0, i64 0, i64 0, i64 0, i32 0, null, metadata !428, i32 0, i32 0} ; [ DW_TAG_subroutine_type ]
!428 = metadata !{metadata !377, metadata !361, metadata !377, metadata !150}
!429 = metadata !{i32 786478, i32 0, metadata !282, metadata !"_M_check_length", metadata !"_M_check_length", metadata !"_ZNKSs15_M_check_lengthEjjPKc", metadata !286, i32 314, metadata !430, i1 false, i1 false, i32 0, i32 0, null, i32 257, i1 false, null, null, i32 0, metadata !86, i32 314} ; [ DW_TAG_subprogram ]
!430 = metadata !{i32 786453, i32 0, metadata !"", i32 0, i32 0, i64 0, i64 0, i64 0, i32 0, null, metadata !431, i32 0, i32 0} ; [ DW_TAG_subroutine_type ]
!431 = metadata !{null, metadata !361, metadata !377, metadata !377, metadata !150}
!432 = metadata !{i32 786478, i32 0, metadata !282, metadata !"_M_limit", metadata !"_M_limit", metadata !"_ZNKSs8_M_limitEjj", metadata !286, i32 322, metadata !433, i1 false, i1 false, i32 0, i32 0, null, i32 257, i1 false, null, null, i32 0, metadata !86, i32 322} ; [ DW_TAG_subprogram ]
!433 = metadata !{i32 786453, i32 0, metadata !"", i32 0, i32 0, i64 0, i64 0, i64 0, i32 0, null, metadata !434, i32 0, i32 0} ; [ DW_TAG_subroutine_type ]
!434 = metadata !{metadata !377, metadata !361, metadata !377, metadata !377}
!435 = metadata !{i32 786478, i32 0, metadata !282, metadata !"_M_disjunct", metadata !"_M_disjunct", metadata !"_ZNKSs11_M_disjunctEPKc", metadata !286, i32 330, metadata !436, i1 false, i1 false, i32 0, i32 0, null, i32 257, i1 false, null, null, i32 0, metadata !86, i32 330} ; [ DW_TAG_subprogram ]
!436 = metadata !{i32 786453, i32 0, metadata !"", i32 0, i32 0, i64 0, i64 0, i64 0, i32 0, null, metadata !437, i32 0, i32 0} ; [ DW_TAG_subroutine_type ]
!437 = metadata !{metadata !212, metadata !361, metadata !150}
!438 = metadata !{i32 786478, i32 0, metadata !282, metadata !"_M_copy", metadata !"_M_copy", metadata !"_ZNSs7_M_copyEPcPKcj", metadata !286, i32 339, metadata !439, i1 false, i1 false, i32 0, i32 0, null, i32 257, i1 false, null, null, i32 0, metadata !86, i32 339} ; [ DW_TAG_subprogram ]
!439 = metadata !{i32 786453, i32 0, metadata !"", i32 0, i32 0, i64 0, i64 0, i64 0, i32 0, null, metadata !440, i32 0, i32 0} ; [ DW_TAG_subroutine_type ]
!440 = metadata !{null, metadata !187, metadata !150, metadata !377}
!441 = metadata !{i32 786478, i32 0, metadata !282, metadata !"_M_move", metadata !"_M_move", metadata !"_ZNSs7_M_moveEPcPKcj", metadata !286, i32 348, metadata !439, i1 false, i1 false, i32 0, i32 0, null, i32 257, i1 false, null, null, i32 0, metadata !86, i32 348} ; [ DW_TAG_subprogram ]
!442 = metadata !{i32 786478, i32 0, metadata !282, metadata !"_M_assign", metadata !"_M_assign", metadata !"_ZNSs9_M_assignEPcjc", metadata !286, i32 357, metadata !443, i1 false, i1 false, i32 0, i32 0, null, i32 257, i1 false, null, null, i32 0, metadata !86, i32 357} ; [ DW_TAG_subprogram ]
!443 = metadata !{i32 786453, i32 0, metadata !"", i32 0, i32 0, i64 0, i64 0, i64 0, i32 0, null, metadata !444, i32 0, i32 0} ; [ DW_TAG_subroutine_type ]
!444 = metadata !{null, metadata !187, metadata !377, metadata !152}
!445 = metadata !{i32 786478, i32 0, metadata !282, metadata !"_S_copy_chars", metadata !"_S_copy_chars", metadata !"_ZNSs13_S_copy_charsEPcN9__gnu_cxx17__normal_iteratorIS_SsEES2_", metadata !286, i32 376, metadata !446, i1 false, i1 false, i32 0, i32 0, null, i32 257, i1 false, null, null, i32 0, metadata !86, i32 376} ; [ DW_TAG_subprogram ]
!446 = metadata !{i32 786453, i32 0, metadata !"", i32 0, i32 0, i64 0, i64 0, i64 0, i32 0, null, metadata !447, i32 0, i32 0} ; [ DW_TAG_subroutine_type ]
!447 = metadata !{null, metadata !187, metadata !419, metadata !419}
!448 = metadata !{i32 786478, i32 0, metadata !282, metadata !"_S_copy_chars", metadata !"_S_copy_chars", metadata !"_ZNSs13_S_copy_charsEPcN9__gnu_cxx17__normal_iteratorIPKcSsEES4_", metadata !286, i32 380, metadata !449, i1 false, i1 false, i32 0, i32 0, null, i32 257, i1 false, null, null, i32 0, metadata !86, i32 380} ; [ DW_TAG_subprogram ]
!449 = metadata !{i32 786453, i32 0, metadata !"", i32 0, i32 0, i64 0, i64 0, i64 0, i32 0, null, metadata !450, i32 0, i32 0} ; [ DW_TAG_subroutine_type ]
!450 = metadata !{null, metadata !187, metadata !451, metadata !451}
!451 = metadata !{i32 786454, metadata !282, metadata !"const_iterator", metadata !283, i32 121, i64 0, i64 0, i64 0, i32 0, metadata !452} ; [ DW_TAG_typedef ]
!452 = metadata !{i32 786434, null, metadata !"__normal_iterator<const char *, std::basic_string<char> >", metadata !421, i32 697, i32 0, i32 0, i32 0, i32 4, null, null, i32 0} ; [ DW_TAG_class_type ]
!453 = metadata !{i32 786478, i32 0, metadata !282, metadata !"_S_copy_chars", metadata !"_S_copy_chars", metadata !"_ZNSs13_S_copy_charsEPcS_S_", metadata !286, i32 384, metadata !454, i1 false, i1 false, i32 0, i32 0, null, i32 257, i1 false, null, null, i32 0, metadata !86, i32 384} ; [ DW_TAG_subprogram ]
!454 = metadata !{i32 786453, i32 0, metadata !"", i32 0, i32 0, i64 0, i64 0, i64 0, i32 0, null, metadata !455, i32 0, i32 0} ; [ DW_TAG_subroutine_type ]
!455 = metadata !{null, metadata !187, metadata !187, metadata !187}
!456 = metadata !{i32 786478, i32 0, metadata !282, metadata !"_S_copy_chars", metadata !"_S_copy_chars", metadata !"_ZNSs13_S_copy_charsEPcPKcS1_", metadata !286, i32 388, metadata !457, i1 false, i1 false, i32 0, i32 0, null, i32 257, i1 false, null, null, i32 0, metadata !86, i32 388} ; [ DW_TAG_subprogram ]
!457 = metadata !{i32 786453, i32 0, metadata !"", i32 0, i32 0, i64 0, i64 0, i64 0, i32 0, null, metadata !458, i32 0, i32 0} ; [ DW_TAG_subroutine_type ]
!458 = metadata !{null, metadata !187, metadata !150, metadata !150}
!459 = metadata !{i32 786478, i32 0, metadata !282, metadata !"_S_compare", metadata !"_S_compare", metadata !"_ZNSs10_S_compareEjj", metadata !286, i32 392, metadata !460, i1 false, i1 false, i32 0, i32 0, null, i32 257, i1 false, null, null, i32 0, metadata !86, i32 392} ; [ DW_TAG_subprogram ]
!460 = metadata !{i32 786453, i32 0, metadata !"", i32 0, i32 0, i64 0, i64 0, i64 0, i32 0, null, metadata !461, i32 0, i32 0} ; [ DW_TAG_subroutine_type ]
!461 = metadata !{metadata !56, metadata !377, metadata !377}
!462 = metadata !{i32 786478, i32 0, metadata !282, metadata !"_M_mutate", metadata !"_M_mutate", metadata !"_ZNSs9_M_mutateEjjj", metadata !286, i32 405, metadata !463, i1 false, i1 false, i32 0, i32 0, null, i32 257, i1 false, null, null, i32 0, metadata !86, i32 405} ; [ DW_TAG_subprogram ]
!463 = metadata !{i32 786453, i32 0, metadata !"", i32 0, i32 0, i64 0, i64 0, i64 0, i32 0, null, metadata !464, i32 0, i32 0} ; [ DW_TAG_subroutine_type ]
!464 = metadata !{null, metadata !366, metadata !377, metadata !377, metadata !377}
!465 = metadata !{i32 786478, i32 0, metadata !282, metadata !"_M_leak_hard", metadata !"_M_leak_hard", metadata !"_ZNSs12_M_leak_hardEv", metadata !286, i32 408, metadata !424, i1 false, i1 false, i32 0, i32 0, null, i32 257, i1 false, null, null, i32 0, metadata !86, i32 408} ; [ DW_TAG_subprogram ]
!466 = metadata !{i32 786478, i32 0, metadata !282, metadata !"_S_empty_rep", metadata !"_S_empty_rep", metadata !"_ZNSs12_S_empty_repEv", metadata !286, i32 411, metadata !382, i1 false, i1 false, i32 0, i32 0, null, i32 257, i1 false, null, null, i32 0, metadata !86, i32 411} ; [ DW_TAG_subprogram ]
!467 = metadata !{i32 786478, i32 0, metadata !282, metadata !"basic_string", metadata !"basic_string", metadata !"", metadata !286, i32 422, metadata !424, i1 false, i1 false, i32 0, i32 0, null, i32 256, i1 false, null, null, i32 0, metadata !86, i32 422} ; [ DW_TAG_subprogram ]
!468 = metadata !{i32 786478, i32 0, metadata !282, metadata !"basic_string", metadata !"basic_string", metadata !"", metadata !286, i32 433, metadata !469, i1 false, i1 false, i32 0, i32 0, null, i32 384, i1 false, null, null, i32 0, metadata !86, i32 433} ; [ DW_TAG_subprogram ]
!469 = metadata !{i32 786453, i32 0, metadata !"", i32 0, i32 0, i64 0, i64 0, i64 0, i32 0, null, metadata !470, i32 0, i32 0} ; [ DW_TAG_subroutine_type ]
!470 = metadata !{null, metadata !366, metadata !348}
!471 = metadata !{i32 786478, i32 0, metadata !282, metadata !"basic_string", metadata !"basic_string", metadata !"", metadata !286, i32 440, metadata !472, i1 false, i1 false, i32 0, i32 0, null, i32 256, i1 false, null, null, i32 0, metadata !86, i32 440} ; [ DW_TAG_subprogram ]
!472 = metadata !{i32 786453, i32 0, metadata !"", i32 0, i32 0, i64 0, i64 0, i64 0, i32 0, null, metadata !473, i32 0, i32 0} ; [ DW_TAG_subroutine_type ]
!473 = metadata !{null, metadata !366, metadata !474}
!474 = metadata !{i32 786448, null, null, null, i32 0, i64 0, i64 0, i64 0, i32 0, metadata !362} ; [ DW_TAG_reference_type ]
!475 = metadata !{i32 786478, i32 0, metadata !282, metadata !"basic_string", metadata !"basic_string", metadata !"", metadata !286, i32 447, metadata !476, i1 false, i1 false, i32 0, i32 0, null, i32 256, i1 false, null, null, i32 0, metadata !86, i32 447} ; [ DW_TAG_subprogram ]
!476 = metadata !{i32 786453, i32 0, metadata !"", i32 0, i32 0, i64 0, i64 0, i64 0, i32 0, null, metadata !477, i32 0, i32 0} ; [ DW_TAG_subroutine_type ]
!477 = metadata !{null, metadata !366, metadata !474, metadata !377, metadata !377}
!478 = metadata !{i32 786478, i32 0, metadata !282, metadata !"basic_string", metadata !"basic_string", metadata !"", metadata !286, i32 456, metadata !479, i1 false, i1 false, i32 0, i32 0, null, i32 256, i1 false, null, null, i32 0, metadata !86, i32 456} ; [ DW_TAG_subprogram ]
!479 = metadata !{i32 786453, i32 0, metadata !"", i32 0, i32 0, i64 0, i64 0, i64 0, i32 0, null, metadata !480, i32 0, i32 0} ; [ DW_TAG_subroutine_type ]
!480 = metadata !{null, metadata !366, metadata !474, metadata !377, metadata !377, metadata !348}
!481 = metadata !{i32 786478, i32 0, metadata !282, metadata !"basic_string", metadata !"basic_string", metadata !"", metadata !286, i32 468, metadata !482, i1 false, i1 false, i32 0, i32 0, null, i32 256, i1 false, null, null, i32 0, metadata !86, i32 468} ; [ DW_TAG_subprogram ]
!482 = metadata !{i32 786453, i32 0, metadata !"", i32 0, i32 0, i64 0, i64 0, i64 0, i32 0, null, metadata !483, i32 0, i32 0} ; [ DW_TAG_subroutine_type ]
!483 = metadata !{null, metadata !366, metadata !150, metadata !377, metadata !348}
!484 = metadata !{i32 786478, i32 0, metadata !282, metadata !"basic_string", metadata !"basic_string", metadata !"", metadata !286, i32 475, metadata !485, i1 false, i1 false, i32 0, i32 0, null, i32 256, i1 false, null, null, i32 0, metadata !86, i32 475} ; [ DW_TAG_subprogram ]
!485 = metadata !{i32 786453, i32 0, metadata !"", i32 0, i32 0, i64 0, i64 0, i64 0, i32 0, null, metadata !486, i32 0, i32 0} ; [ DW_TAG_subroutine_type ]
!486 = metadata !{null, metadata !366, metadata !150, metadata !348}
!487 = metadata !{i32 786478, i32 0, metadata !282, metadata !"basic_string", metadata !"basic_string", metadata !"", metadata !286, i32 482, metadata !488, i1 false, i1 false, i32 0, i32 0, null, i32 256, i1 false, null, null, i32 0, metadata !86, i32 482} ; [ DW_TAG_subprogram ]
!488 = metadata !{i32 786453, i32 0, metadata !"", i32 0, i32 0, i64 0, i64 0, i64 0, i32 0, null, metadata !489, i32 0, i32 0} ; [ DW_TAG_subroutine_type ]
!489 = metadata !{null, metadata !366, metadata !377, metadata !152, metadata !348}
!490 = metadata !{i32 786478, i32 0, metadata !282, metadata !"~basic_string", metadata !"~basic_string", metadata !"", metadata !286, i32 523, metadata !424, i1 false, i1 false, i32 0, i32 0, null, i32 256, i1 false, null, null, i32 0, metadata !86, i32 523} ; [ DW_TAG_subprogram ]
!491 = metadata !{i32 786478, i32 0, metadata !282, metadata !"operator=", metadata !"operator=", metadata !"_ZNSsaSERKSs", metadata !286, i32 531, metadata !492, i1 false, i1 false, i32 0, i32 0, null, i32 256, i1 false, null, null, i32 0, metadata !86, i32 531} ; [ DW_TAG_subprogram ]
!492 = metadata !{i32 786453, i32 0, metadata !"", i32 0, i32 0, i64 0, i64 0, i64 0, i32 0, null, metadata !493, i32 0, i32 0} ; [ DW_TAG_subroutine_type ]
!493 = metadata !{metadata !494, metadata !366, metadata !474}
!494 = metadata !{i32 786448, null, null, null, i32 0, i64 0, i64 0, i64 0, i32 0, metadata !282} ; [ DW_TAG_reference_type ]
!495 = metadata !{i32 786478, i32 0, metadata !282, metadata !"operator=", metadata !"operator=", metadata !"_ZNSsaSEPKc", metadata !286, i32 539, metadata !496, i1 false, i1 false, i32 0, i32 0, null, i32 256, i1 false, null, null, i32 0, metadata !86, i32 539} ; [ DW_TAG_subprogram ]
!496 = metadata !{i32 786453, i32 0, metadata !"", i32 0, i32 0, i64 0, i64 0, i64 0, i32 0, null, metadata !497, i32 0, i32 0} ; [ DW_TAG_subroutine_type ]
!497 = metadata !{metadata !494, metadata !366, metadata !150}
!498 = metadata !{i32 786478, i32 0, metadata !282, metadata !"operator=", metadata !"operator=", metadata !"_ZNSsaSEc", metadata !286, i32 550, metadata !499, i1 false, i1 false, i32 0, i32 0, null, i32 256, i1 false, null, null, i32 0, metadata !86, i32 550} ; [ DW_TAG_subprogram ]
!499 = metadata !{i32 786453, i32 0, metadata !"", i32 0, i32 0, i64 0, i64 0, i64 0, i32 0, null, metadata !500, i32 0, i32 0} ; [ DW_TAG_subroutine_type ]
!500 = metadata !{metadata !494, metadata !366, metadata !152}
!501 = metadata !{i32 786478, i32 0, metadata !282, metadata !"begin", metadata !"begin", metadata !"_ZNSs5beginEv", metadata !286, i32 590, metadata !502, i1 false, i1 false, i32 0, i32 0, null, i32 256, i1 false, null, null, i32 0, metadata !86, i32 590} ; [ DW_TAG_subprogram ]
!502 = metadata !{i32 786453, i32 0, metadata !"", i32 0, i32 0, i64 0, i64 0, i64 0, i32 0, null, metadata !503, i32 0, i32 0} ; [ DW_TAG_subroutine_type ]
!503 = metadata !{metadata !419, metadata !366}
!504 = metadata !{i32 786478, i32 0, metadata !282, metadata !"begin", metadata !"begin", metadata !"_ZNKSs5beginEv", metadata !286, i32 601, metadata !505, i1 false, i1 false, i32 0, i32 0, null, i32 256, i1 false, null, null, i32 0, metadata !86, i32 601} ; [ DW_TAG_subprogram ]
!505 = metadata !{i32 786453, i32 0, metadata !"", i32 0, i32 0, i64 0, i64 0, i64 0, i32 0, null, metadata !506, i32 0, i32 0} ; [ DW_TAG_subroutine_type ]
!506 = metadata !{metadata !451, metadata !361}
!507 = metadata !{i32 786478, i32 0, metadata !282, metadata !"end", metadata !"end", metadata !"_ZNSs3endEv", metadata !286, i32 609, metadata !502, i1 false, i1 false, i32 0, i32 0, null, i32 256, i1 false, null, null, i32 0, metadata !86, i32 609} ; [ DW_TAG_subprogram ]
!508 = metadata !{i32 786478, i32 0, metadata !282, metadata !"end", metadata !"end", metadata !"_ZNKSs3endEv", metadata !286, i32 620, metadata !505, i1 false, i1 false, i32 0, i32 0, null, i32 256, i1 false, null, null, i32 0, metadata !86, i32 620} ; [ DW_TAG_subprogram ]
!509 = metadata !{i32 786478, i32 0, metadata !282, metadata !"rbegin", metadata !"rbegin", metadata !"_ZNSs6rbeginEv", metadata !286, i32 629, metadata !510, i1 false, i1 false, i32 0, i32 0, null, i32 256, i1 false, null, null, i32 0, metadata !86, i32 629} ; [ DW_TAG_subprogram ]
!510 = metadata !{i32 786453, i32 0, metadata !"", i32 0, i32 0, i64 0, i64 0, i64 0, i32 0, null, metadata !511, i32 0, i32 0} ; [ DW_TAG_subroutine_type ]
!511 = metadata !{metadata !512, metadata !366}
!512 = metadata !{i32 786454, metadata !282, metadata !"reverse_iterator", metadata !283, i32 123, i64 0, i64 0, i64 0, i32 0, metadata !513} ; [ DW_TAG_typedef ]
!513 = metadata !{i32 786434, null, metadata !"reverse_iterator<__gnu_cxx::__normal_iterator<char *, std::basic_string<char> > >", metadata !421, i32 95, i32 0, i32 0, i32 0, i32 4, null, null, i32 0} ; [ DW_TAG_class_type ]
!514 = metadata !{i32 786478, i32 0, metadata !282, metadata !"rbegin", metadata !"rbegin", metadata !"_ZNKSs6rbeginEv", metadata !286, i32 638, metadata !515, i1 false, i1 false, i32 0, i32 0, null, i32 256, i1 false, null, null, i32 0, metadata !86, i32 638} ; [ DW_TAG_subprogram ]
!515 = metadata !{i32 786453, i32 0, metadata !"", i32 0, i32 0, i64 0, i64 0, i64 0, i32 0, null, metadata !516, i32 0, i32 0} ; [ DW_TAG_subroutine_type ]
!516 = metadata !{metadata !517, metadata !361}
!517 = metadata !{i32 786454, metadata !282, metadata !"const_reverse_iterator", metadata !283, i32 122, i64 0, i64 0, i64 0, i32 0, metadata !518} ; [ DW_TAG_typedef ]
!518 = metadata !{i32 786434, null, metadata !"reverse_iterator<__gnu_cxx::__normal_iterator<const char *, std::basic_string<char> > >", metadata !421, i32 95, i32 0, i32 0, i32 0, i32 4, null, null, i32 0} ; [ DW_TAG_class_type ]
!519 = metadata !{i32 786478, i32 0, metadata !282, metadata !"rend", metadata !"rend", metadata !"_ZNSs4rendEv", metadata !286, i32 647, metadata !510, i1 false, i1 false, i32 0, i32 0, null, i32 256, i1 false, null, null, i32 0, metadata !86, i32 647} ; [ DW_TAG_subprogram ]
!520 = metadata !{i32 786478, i32 0, metadata !282, metadata !"rend", metadata !"rend", metadata !"_ZNKSs4rendEv", metadata !286, i32 656, metadata !515, i1 false, i1 false, i32 0, i32 0, null, i32 256, i1 false, null, null, i32 0, metadata !86, i32 656} ; [ DW_TAG_subprogram ]
!521 = metadata !{i32 786478, i32 0, metadata !282, metadata !"size", metadata !"size", metadata !"_ZNKSs4sizeEv", metadata !286, i32 700, metadata !522, i1 false, i1 false, i32 0, i32 0, null, i32 256, i1 false, null, null, i32 0, metadata !86, i32 700} ; [ DW_TAG_subprogram ]
!522 = metadata !{i32 786453, i32 0, metadata !"", i32 0, i32 0, i64 0, i64 0, i64 0, i32 0, null, metadata !523, i32 0, i32 0} ; [ DW_TAG_subroutine_type ]
!523 = metadata !{metadata !377, metadata !361}
!524 = metadata !{i32 786478, i32 0, metadata !282, metadata !"length", metadata !"length", metadata !"_ZNKSs6lengthEv", metadata !286, i32 706, metadata !522, i1 false, i1 false, i32 0, i32 0, null, i32 256, i1 false, null, null, i32 0, metadata !86, i32 706} ; [ DW_TAG_subprogram ]
!525 = metadata !{i32 786478, i32 0, metadata !282, metadata !"max_size", metadata !"max_size", metadata !"_ZNKSs8max_sizeEv", metadata !286, i32 711, metadata !522, i1 false, i1 false, i32 0, i32 0, null, i32 256, i1 false, null, null, i32 0, metadata !86, i32 711} ; [ DW_TAG_subprogram ]
!526 = metadata !{i32 786478, i32 0, metadata !282, metadata !"resize", metadata !"resize", metadata !"_ZNSs6resizeEjc", metadata !286, i32 725, metadata !527, i1 false, i1 false, i32 0, i32 0, null, i32 256, i1 false, null, null, i32 0, metadata !86, i32 725} ; [ DW_TAG_subprogram ]
!527 = metadata !{i32 786453, i32 0, metadata !"", i32 0, i32 0, i64 0, i64 0, i64 0, i32 0, null, metadata !528, i32 0, i32 0} ; [ DW_TAG_subroutine_type ]
!528 = metadata !{null, metadata !366, metadata !377, metadata !152}
!529 = metadata !{i32 786478, i32 0, metadata !282, metadata !"resize", metadata !"resize", metadata !"_ZNSs6resizeEj", metadata !286, i32 738, metadata !530, i1 false, i1 false, i32 0, i32 0, null, i32 256, i1 false, null, null, i32 0, metadata !86, i32 738} ; [ DW_TAG_subprogram ]
!530 = metadata !{i32 786453, i32 0, metadata !"", i32 0, i32 0, i64 0, i64 0, i64 0, i32 0, null, metadata !531, i32 0, i32 0} ; [ DW_TAG_subroutine_type ]
!531 = metadata !{null, metadata !366, metadata !377}
!532 = metadata !{i32 786478, i32 0, metadata !282, metadata !"capacity", metadata !"capacity", metadata !"_ZNKSs8capacityEv", metadata !286, i32 758, metadata !522, i1 false, i1 false, i32 0, i32 0, null, i32 256, i1 false, null, null, i32 0, metadata !86, i32 758} ; [ DW_TAG_subprogram ]
!533 = metadata !{i32 786478, i32 0, metadata !282, metadata !"reserve", metadata !"reserve", metadata !"_ZNSs7reserveEj", metadata !286, i32 779, metadata !530, i1 false, i1 false, i32 0, i32 0, null, i32 256, i1 false, null, null, i32 0, metadata !86, i32 779} ; [ DW_TAG_subprogram ]
!534 = metadata !{i32 786478, i32 0, metadata !282, metadata !"clear", metadata !"clear", metadata !"_ZNSs5clearEv", metadata !286, i32 785, metadata !424, i1 false, i1 false, i32 0, i32 0, null, i32 256, i1 false, null, null, i32 0, metadata !86, i32 785} ; [ DW_TAG_subprogram ]
!535 = metadata !{i32 786478, i32 0, metadata !282, metadata !"empty", metadata !"empty", metadata !"_ZNKSs5emptyEv", metadata !286, i32 793, metadata !536, i1 false, i1 false, i32 0, i32 0, null, i32 256, i1 false, null, null, i32 0, metadata !86, i32 793} ; [ DW_TAG_subprogram ]
!536 = metadata !{i32 786453, i32 0, metadata !"", i32 0, i32 0, i64 0, i64 0, i64 0, i32 0, null, metadata !537, i32 0, i32 0} ; [ DW_TAG_subroutine_type ]
!537 = metadata !{metadata !212, metadata !361}
!538 = metadata !{i32 786478, i32 0, metadata !282, metadata !"operator[]", metadata !"operator[]", metadata !"_ZNKSsixEj", metadata !286, i32 808, metadata !539, i1 false, i1 false, i32 0, i32 0, null, i32 256, i1 false, null, null, i32 0, metadata !86, i32 808} ; [ DW_TAG_subprogram ]
!539 = metadata !{i32 786453, i32 0, metadata !"", i32 0, i32 0, i64 0, i64 0, i64 0, i32 0, null, metadata !540, i32 0, i32 0} ; [ DW_TAG_subroutine_type ]
!540 = metadata !{metadata !541, metadata !361, metadata !377}
!541 = metadata !{i32 786454, metadata !282, metadata !"const_reference", metadata !283, i32 116, i64 0, i64 0, i64 0, i32 0, metadata !542} ; [ DW_TAG_typedef ]
!542 = metadata !{i32 786454, metadata !290, metadata !"const_reference", metadata !283, i32 94, i64 0, i64 0, i64 0, i32 0, metadata !320} ; [ DW_TAG_typedef ]
!543 = metadata !{i32 786478, i32 0, metadata !282, metadata !"operator[]", metadata !"operator[]", metadata !"_ZNSsixEj", metadata !286, i32 825, metadata !544, i1 false, i1 false, i32 0, i32 0, null, i32 256, i1 false, null, null, i32 0, metadata !86, i32 825} ; [ DW_TAG_subprogram ]
!544 = metadata !{i32 786453, i32 0, metadata !"", i32 0, i32 0, i64 0, i64 0, i64 0, i32 0, null, metadata !545, i32 0, i32 0} ; [ DW_TAG_subroutine_type ]
!545 = metadata !{metadata !546, metadata !366, metadata !377}
!546 = metadata !{i32 786454, metadata !282, metadata !"reference", metadata !283, i32 115, i64 0, i64 0, i64 0, i32 0, metadata !547} ; [ DW_TAG_typedef ]
!547 = metadata !{i32 786454, metadata !290, metadata !"reference", metadata !283, i32 93, i64 0, i64 0, i64 0, i32 0, metadata !314} ; [ DW_TAG_typedef ]
!548 = metadata !{i32 786478, i32 0, metadata !282, metadata !"at", metadata !"at", metadata !"_ZNKSs2atEj", metadata !286, i32 846, metadata !539, i1 false, i1 false, i32 0, i32 0, null, i32 256, i1 false, null, null, i32 0, metadata !86, i32 846} ; [ DW_TAG_subprogram ]
!549 = metadata !{i32 786478, i32 0, metadata !282, metadata !"at", metadata !"at", metadata !"_ZNSs2atEj", metadata !286, i32 865, metadata !544, i1 false, i1 false, i32 0, i32 0, null, i32 256, i1 false, null, null, i32 0, metadata !86, i32 865} ; [ DW_TAG_subprogram ]
!550 = metadata !{i32 786478, i32 0, metadata !282, metadata !"operator+=", metadata !"operator+=", metadata !"_ZNSspLERKSs", metadata !286, i32 880, metadata !492, i1 false, i1 false, i32 0, i32 0, null, i32 256, i1 false, null, null, i32 0, metadata !86, i32 880} ; [ DW_TAG_subprogram ]
!551 = metadata !{i32 786478, i32 0, metadata !282, metadata !"operator+=", metadata !"operator+=", metadata !"_ZNSspLEPKc", metadata !286, i32 889, metadata !496, i1 false, i1 false, i32 0, i32 0, null, i32 256, i1 false, null, null, i32 0, metadata !86, i32 889} ; [ DW_TAG_subprogram ]
!552 = metadata !{i32 786478, i32 0, metadata !282, metadata !"operator+=", metadata !"operator+=", metadata !"_ZNSspLEc", metadata !286, i32 898, metadata !499, i1 false, i1 false, i32 0, i32 0, null, i32 256, i1 false, null, null, i32 0, metadata !86, i32 898} ; [ DW_TAG_subprogram ]
!553 = metadata !{i32 786478, i32 0, metadata !282, metadata !"append", metadata !"append", metadata !"_ZNSs6appendERKSs", metadata !286, i32 921, metadata !492, i1 false, i1 false, i32 0, i32 0, null, i32 256, i1 false, null, null, i32 0, metadata !86, i32 921} ; [ DW_TAG_subprogram ]
!554 = metadata !{i32 786478, i32 0, metadata !282, metadata !"append", metadata !"append", metadata !"_ZNSs6appendERKSsjj", metadata !286, i32 936, metadata !555, i1 false, i1 false, i32 0, i32 0, null, i32 256, i1 false, null, null, i32 0, metadata !86, i32 936} ; [ DW_TAG_subprogram ]
!555 = metadata !{i32 786453, i32 0, metadata !"", i32 0, i32 0, i64 0, i64 0, i64 0, i32 0, null, metadata !556, i32 0, i32 0} ; [ DW_TAG_subroutine_type ]
!556 = metadata !{metadata !494, metadata !366, metadata !474, metadata !377, metadata !377}
!557 = metadata !{i32 786478, i32 0, metadata !282, metadata !"append", metadata !"append", metadata !"_ZNSs6appendEPKcj", metadata !286, i32 945, metadata !558, i1 false, i1 false, i32 0, i32 0, null, i32 256, i1 false, null, null, i32 0, metadata !86, i32 945} ; [ DW_TAG_subprogram ]
!558 = metadata !{i32 786453, i32 0, metadata !"", i32 0, i32 0, i64 0, i64 0, i64 0, i32 0, null, metadata !559, i32 0, i32 0} ; [ DW_TAG_subroutine_type ]
!559 = metadata !{metadata !494, metadata !366, metadata !150, metadata !377}
!560 = metadata !{i32 786478, i32 0, metadata !282, metadata !"append", metadata !"append", metadata !"_ZNSs6appendEPKc", metadata !286, i32 953, metadata !496, i1 false, i1 false, i32 0, i32 0, null, i32 256, i1 false, null, null, i32 0, metadata !86, i32 953} ; [ DW_TAG_subprogram ]
!561 = metadata !{i32 786478, i32 0, metadata !282, metadata !"append", metadata !"append", metadata !"_ZNSs6appendEjc", metadata !286, i32 968, metadata !562, i1 false, i1 false, i32 0, i32 0, null, i32 256, i1 false, null, null, i32 0, metadata !86, i32 968} ; [ DW_TAG_subprogram ]
!562 = metadata !{i32 786453, i32 0, metadata !"", i32 0, i32 0, i64 0, i64 0, i64 0, i32 0, null, metadata !563, i32 0, i32 0} ; [ DW_TAG_subroutine_type ]
!563 = metadata !{metadata !494, metadata !366, metadata !377, metadata !152}
!564 = metadata !{i32 786478, i32 0, metadata !282, metadata !"push_back", metadata !"push_back", metadata !"_ZNSs9push_backEc", metadata !286, i32 999, metadata !565, i1 false, i1 false, i32 0, i32 0, null, i32 256, i1 false, null, null, i32 0, metadata !86, i32 999} ; [ DW_TAG_subprogram ]
!565 = metadata !{i32 786453, i32 0, metadata !"", i32 0, i32 0, i64 0, i64 0, i64 0, i32 0, null, metadata !566, i32 0, i32 0} ; [ DW_TAG_subroutine_type ]
!566 = metadata !{null, metadata !366, metadata !152}
!567 = metadata !{i32 786478, i32 0, metadata !282, metadata !"assign", metadata !"assign", metadata !"_ZNSs6assignERKSs", metadata !286, i32 1014, metadata !492, i1 false, i1 false, i32 0, i32 0, null, i32 256, i1 false, null, null, i32 0, metadata !86, i32 1014} ; [ DW_TAG_subprogram ]
!568 = metadata !{i32 786478, i32 0, metadata !282, metadata !"assign", metadata !"assign", metadata !"_ZNSs6assignERKSsjj", metadata !286, i32 1046, metadata !555, i1 false, i1 false, i32 0, i32 0, null, i32 256, i1 false, null, null, i32 0, metadata !86, i32 1046} ; [ DW_TAG_subprogram ]
!569 = metadata !{i32 786478, i32 0, metadata !282, metadata !"assign", metadata !"assign", metadata !"_ZNSs6assignEPKcj", metadata !286, i32 1062, metadata !558, i1 false, i1 false, i32 0, i32 0, null, i32 256, i1 false, null, null, i32 0, metadata !86, i32 1062} ; [ DW_TAG_subprogram ]
!570 = metadata !{i32 786478, i32 0, metadata !282, metadata !"assign", metadata !"assign", metadata !"_ZNSs6assignEPKc", metadata !286, i32 1074, metadata !496, i1 false, i1 false, i32 0, i32 0, null, i32 256, i1 false, null, null, i32 0, metadata !86, i32 1074} ; [ DW_TAG_subprogram ]
!571 = metadata !{i32 786478, i32 0, metadata !282, metadata !"assign", metadata !"assign", metadata !"_ZNSs6assignEjc", metadata !286, i32 1090, metadata !562, i1 false, i1 false, i32 0, i32 0, null, i32 256, i1 false, null, null, i32 0, metadata !86, i32 1090} ; [ DW_TAG_subprogram ]
!572 = metadata !{i32 786478, i32 0, metadata !282, metadata !"insert", metadata !"insert", metadata !"_ZNSs6insertEN9__gnu_cxx17__normal_iteratorIPcSsEEjc", metadata !286, i32 1130, metadata !573, i1 false, i1 false, i32 0, i32 0, null, i32 256, i1 false, null, null, i32 0, metadata !86, i32 1130} ; [ DW_TAG_subprogram ]
!573 = metadata !{i32 786453, i32 0, metadata !"", i32 0, i32 0, i64 0, i64 0, i64 0, i32 0, null, metadata !574, i32 0, i32 0} ; [ DW_TAG_subroutine_type ]
!574 = metadata !{null, metadata !366, metadata !419, metadata !377, metadata !152}
!575 = metadata !{i32 786478, i32 0, metadata !282, metadata !"insert", metadata !"insert", metadata !"_ZNSs6insertEjRKSs", metadata !286, i32 1176, metadata !576, i1 false, i1 false, i32 0, i32 0, null, i32 256, i1 false, null, null, i32 0, metadata !86, i32 1176} ; [ DW_TAG_subprogram ]
!576 = metadata !{i32 786453, i32 0, metadata !"", i32 0, i32 0, i64 0, i64 0, i64 0, i32 0, null, metadata !577, i32 0, i32 0} ; [ DW_TAG_subroutine_type ]
!577 = metadata !{metadata !494, metadata !366, metadata !377, metadata !474}
!578 = metadata !{i32 786478, i32 0, metadata !282, metadata !"insert", metadata !"insert", metadata !"_ZNSs6insertEjRKSsjj", metadata !286, i32 1198, metadata !579, i1 false, i1 false, i32 0, i32 0, null, i32 256, i1 false, null, null, i32 0, metadata !86, i32 1198} ; [ DW_TAG_subprogram ]
!579 = metadata !{i32 786453, i32 0, metadata !"", i32 0, i32 0, i64 0, i64 0, i64 0, i32 0, null, metadata !580, i32 0, i32 0} ; [ DW_TAG_subroutine_type ]
!580 = metadata !{metadata !494, metadata !366, metadata !377, metadata !474, metadata !377, metadata !377}
!581 = metadata !{i32 786478, i32 0, metadata !282, metadata !"insert", metadata !"insert", metadata !"_ZNSs6insertEjPKcj", metadata !286, i32 1221, metadata !582, i1 false, i1 false, i32 0, i32 0, null, i32 256, i1 false, null, null, i32 0, metadata !86, i32 1221} ; [ DW_TAG_subprogram ]
!582 = metadata !{i32 786453, i32 0, metadata !"", i32 0, i32 0, i64 0, i64 0, i64 0, i32 0, null, metadata !583, i32 0, i32 0} ; [ DW_TAG_subroutine_type ]
!583 = metadata !{metadata !494, metadata !366, metadata !377, metadata !150, metadata !377}
!584 = metadata !{i32 786478, i32 0, metadata !282, metadata !"insert", metadata !"insert", metadata !"_ZNSs6insertEjPKc", metadata !286, i32 1239, metadata !585, i1 false, i1 false, i32 0, i32 0, null, i32 256, i1 false, null, null, i32 0, metadata !86, i32 1239} ; [ DW_TAG_subprogram ]
!585 = metadata !{i32 786453, i32 0, metadata !"", i32 0, i32 0, i64 0, i64 0, i64 0, i32 0, null, metadata !586, i32 0, i32 0} ; [ DW_TAG_subroutine_type ]
!586 = metadata !{metadata !494, metadata !366, metadata !377, metadata !150}
!587 = metadata !{i32 786478, i32 0, metadata !282, metadata !"insert", metadata !"insert", metadata !"_ZNSs6insertEjjc", metadata !286, i32 1262, metadata !588, i1 false, i1 false, i32 0, i32 0, null, i32 256, i1 false, null, null, i32 0, metadata !86, i32 1262} ; [ DW_TAG_subprogram ]
!588 = metadata !{i32 786453, i32 0, metadata !"", i32 0, i32 0, i64 0, i64 0, i64 0, i32 0, null, metadata !589, i32 0, i32 0} ; [ DW_TAG_subroutine_type ]
!589 = metadata !{metadata !494, metadata !366, metadata !377, metadata !377, metadata !152}
!590 = metadata !{i32 786478, i32 0, metadata !282, metadata !"insert", metadata !"insert", metadata !"_ZNSs6insertEN9__gnu_cxx17__normal_iteratorIPcSsEEc", metadata !286, i32 1279, metadata !591, i1 false, i1 false, i32 0, i32 0, null, i32 256, i1 false, null, null, i32 0, metadata !86, i32 1279} ; [ DW_TAG_subprogram ]
!591 = metadata !{i32 786453, i32 0, metadata !"", i32 0, i32 0, i64 0, i64 0, i64 0, i32 0, null, metadata !592, i32 0, i32 0} ; [ DW_TAG_subroutine_type ]
!592 = metadata !{metadata !419, metadata !366, metadata !419, metadata !152}
!593 = metadata !{i32 786478, i32 0, metadata !282, metadata !"erase", metadata !"erase", metadata !"_ZNSs5eraseEjj", metadata !286, i32 1303, metadata !594, i1 false, i1 false, i32 0, i32 0, null, i32 256, i1 false, null, null, i32 0, metadata !86, i32 1303} ; [ DW_TAG_subprogram ]
!594 = metadata !{i32 786453, i32 0, metadata !"", i32 0, i32 0, i64 0, i64 0, i64 0, i32 0, null, metadata !595, i32 0, i32 0} ; [ DW_TAG_subroutine_type ]
!595 = metadata !{metadata !494, metadata !366, metadata !377, metadata !377}
!596 = metadata !{i32 786478, i32 0, metadata !282, metadata !"erase", metadata !"erase", metadata !"_ZNSs5eraseEN9__gnu_cxx17__normal_iteratorIPcSsEE", metadata !286, i32 1319, metadata !597, i1 false, i1 false, i32 0, i32 0, null, i32 256, i1 false, null, null, i32 0, metadata !86, i32 1319} ; [ DW_TAG_subprogram ]
!597 = metadata !{i32 786453, i32 0, metadata !"", i32 0, i32 0, i64 0, i64 0, i64 0, i32 0, null, metadata !598, i32 0, i32 0} ; [ DW_TAG_subroutine_type ]
!598 = metadata !{metadata !419, metadata !366, metadata !419}
!599 = metadata !{i32 786478, i32 0, metadata !282, metadata !"erase", metadata !"erase", metadata !"_ZNSs5eraseEN9__gnu_cxx17__normal_iteratorIPcSsEES2_", metadata !286, i32 1339, metadata !600, i1 false, i1 false, i32 0, i32 0, null, i32 256, i1 false, null, null, i32 0, metadata !86, i32 1339} ; [ DW_TAG_subprogram ]
!600 = metadata !{i32 786453, i32 0, metadata !"", i32 0, i32 0, i64 0, i64 0, i64 0, i32 0, null, metadata !601, i32 0, i32 0} ; [ DW_TAG_subroutine_type ]
!601 = metadata !{metadata !419, metadata !366, metadata !419, metadata !419}
!602 = metadata !{i32 786478, i32 0, metadata !282, metadata !"replace", metadata !"replace", metadata !"_ZNSs7replaceEjjRKSs", metadata !286, i32 1358, metadata !603, i1 false, i1 false, i32 0, i32 0, null, i32 256, i1 false, null, null, i32 0, metadata !86, i32 1358} ; [ DW_TAG_subprogram ]
!603 = metadata !{i32 786453, i32 0, metadata !"", i32 0, i32 0, i64 0, i64 0, i64 0, i32 0, null, metadata !604, i32 0, i32 0} ; [ DW_TAG_subroutine_type ]
!604 = metadata !{metadata !494, metadata !366, metadata !377, metadata !377, metadata !474}
!605 = metadata !{i32 786478, i32 0, metadata !282, metadata !"replace", metadata !"replace", metadata !"_ZNSs7replaceEjjRKSsjj", metadata !286, i32 1380, metadata !606, i1 false, i1 false, i32 0, i32 0, null, i32 256, i1 false, null, null, i32 0, metadata !86, i32 1380} ; [ DW_TAG_subprogram ]
!606 = metadata !{i32 786453, i32 0, metadata !"", i32 0, i32 0, i64 0, i64 0, i64 0, i32 0, null, metadata !607, i32 0, i32 0} ; [ DW_TAG_subroutine_type ]
!607 = metadata !{metadata !494, metadata !366, metadata !377, metadata !377, metadata !474, metadata !377, metadata !377}
!608 = metadata !{i32 786478, i32 0, metadata !282, metadata !"replace", metadata !"replace", metadata !"_ZNSs7replaceEjjPKcj", metadata !286, i32 1404, metadata !609, i1 false, i1 false, i32 0, i32 0, null, i32 256, i1 false, null, null, i32 0, metadata !86, i32 1404} ; [ DW_TAG_subprogram ]
!609 = metadata !{i32 786453, i32 0, metadata !"", i32 0, i32 0, i64 0, i64 0, i64 0, i32 0, null, metadata !610, i32 0, i32 0} ; [ DW_TAG_subroutine_type ]
!610 = metadata !{metadata !494, metadata !366, metadata !377, metadata !377, metadata !150, metadata !377}
!611 = metadata !{i32 786478, i32 0, metadata !282, metadata !"replace", metadata !"replace", metadata !"_ZNSs7replaceEjjPKc", metadata !286, i32 1423, metadata !612, i1 false, i1 false, i32 0, i32 0, null, i32 256, i1 false, null, null, i32 0, metadata !86, i32 1423} ; [ DW_TAG_subprogram ]
!612 = metadata !{i32 786453, i32 0, metadata !"", i32 0, i32 0, i64 0, i64 0, i64 0, i32 0, null, metadata !613, i32 0, i32 0} ; [ DW_TAG_subroutine_type ]
!613 = metadata !{metadata !494, metadata !366, metadata !377, metadata !377, metadata !150}
!614 = metadata !{i32 786478, i32 0, metadata !282, metadata !"replace", metadata !"replace", metadata !"_ZNSs7replaceEjjjc", metadata !286, i32 1446, metadata !615, i1 false, i1 false, i32 0, i32 0, null, i32 256, i1 false, null, null, i32 0, metadata !86, i32 1446} ; [ DW_TAG_subprogram ]
!615 = metadata !{i32 786453, i32 0, metadata !"", i32 0, i32 0, i64 0, i64 0, i64 0, i32 0, null, metadata !616, i32 0, i32 0} ; [ DW_TAG_subroutine_type ]
!616 = metadata !{metadata !494, metadata !366, metadata !377, metadata !377, metadata !377, metadata !152}
!617 = metadata !{i32 786478, i32 0, metadata !282, metadata !"replace", metadata !"replace", metadata !"_ZNSs7replaceEN9__gnu_cxx17__normal_iteratorIPcSsEES2_RKSs", metadata !286, i32 1464, metadata !618, i1 false, i1 false, i32 0, i32 0, null, i32 256, i1 false, null, null, i32 0, metadata !86, i32 1464} ; [ DW_TAG_subprogram ]
!618 = metadata !{i32 786453, i32 0, metadata !"", i32 0, i32 0, i64 0, i64 0, i64 0, i32 0, null, metadata !619, i32 0, i32 0} ; [ DW_TAG_subroutine_type ]
!619 = metadata !{metadata !494, metadata !366, metadata !419, metadata !419, metadata !474}
!620 = metadata !{i32 786478, i32 0, metadata !282, metadata !"replace", metadata !"replace", metadata !"_ZNSs7replaceEN9__gnu_cxx17__normal_iteratorIPcSsEES2_PKcj", metadata !286, i32 1482, metadata !621, i1 false, i1 false, i32 0, i32 0, null, i32 256, i1 false, null, null, i32 0, metadata !86, i32 1482} ; [ DW_TAG_subprogram ]
!621 = metadata !{i32 786453, i32 0, metadata !"", i32 0, i32 0, i64 0, i64 0, i64 0, i32 0, null, metadata !622, i32 0, i32 0} ; [ DW_TAG_subroutine_type ]
!622 = metadata !{metadata !494, metadata !366, metadata !419, metadata !419, metadata !150, metadata !377}
!623 = metadata !{i32 786478, i32 0, metadata !282, metadata !"replace", metadata !"replace", metadata !"_ZNSs7replaceEN9__gnu_cxx17__normal_iteratorIPcSsEES2_PKc", metadata !286, i32 1503, metadata !624, i1 false, i1 false, i32 0, i32 0, null, i32 256, i1 false, null, null, i32 0, metadata !86, i32 1503} ; [ DW_TAG_subprogram ]
!624 = metadata !{i32 786453, i32 0, metadata !"", i32 0, i32 0, i64 0, i64 0, i64 0, i32 0, null, metadata !625, i32 0, i32 0} ; [ DW_TAG_subroutine_type ]
!625 = metadata !{metadata !494, metadata !366, metadata !419, metadata !419, metadata !150}
!626 = metadata !{i32 786478, i32 0, metadata !282, metadata !"replace", metadata !"replace", metadata !"_ZNSs7replaceEN9__gnu_cxx17__normal_iteratorIPcSsEES2_jc", metadata !286, i32 1524, metadata !627, i1 false, i1 false, i32 0, i32 0, null, i32 256, i1 false, null, null, i32 0, metadata !86, i32 1524} ; [ DW_TAG_subprogram ]
!627 = metadata !{i32 786453, i32 0, metadata !"", i32 0, i32 0, i64 0, i64 0, i64 0, i32 0, null, metadata !628, i32 0, i32 0} ; [ DW_TAG_subroutine_type ]
!628 = metadata !{metadata !494, metadata !366, metadata !419, metadata !419, metadata !377, metadata !152}
!629 = metadata !{i32 786478, i32 0, metadata !282, metadata !"replace", metadata !"replace", metadata !"_ZNSs7replaceEN9__gnu_cxx17__normal_iteratorIPcSsEES2_S1_S1_", metadata !286, i32 1560, metadata !630, i1 false, i1 false, i32 0, i32 0, null, i32 256, i1 false, null, null, i32 0, metadata !86, i32 1560} ; [ DW_TAG_subprogram ]
!630 = metadata !{i32 786453, i32 0, metadata !"", i32 0, i32 0, i64 0, i64 0, i64 0, i32 0, null, metadata !631, i32 0, i32 0} ; [ DW_TAG_subroutine_type ]
!631 = metadata !{metadata !494, metadata !366, metadata !419, metadata !419, metadata !187, metadata !187}
!632 = metadata !{i32 786478, i32 0, metadata !282, metadata !"replace", metadata !"replace", metadata !"_ZNSs7replaceEN9__gnu_cxx17__normal_iteratorIPcSsEES2_PKcS4_", metadata !286, i32 1570, metadata !633, i1 false, i1 false, i32 0, i32 0, null, i32 256, i1 false, null, null, i32 0, metadata !86, i32 1570} ; [ DW_TAG_subprogram ]
!633 = metadata !{i32 786453, i32 0, metadata !"", i32 0, i32 0, i64 0, i64 0, i64 0, i32 0, null, metadata !634, i32 0, i32 0} ; [ DW_TAG_subroutine_type ]
!634 = metadata !{metadata !494, metadata !366, metadata !419, metadata !419, metadata !150, metadata !150}
!635 = metadata !{i32 786478, i32 0, metadata !282, metadata !"replace", metadata !"replace", metadata !"_ZNSs7replaceEN9__gnu_cxx17__normal_iteratorIPcSsEES2_S2_S2_", metadata !286, i32 1581, metadata !636, i1 false, i1 false, i32 0, i32 0, null, i32 256, i1 false, null, null, i32 0, metadata !86, i32 1581} ; [ DW_TAG_subprogram ]
!636 = metadata !{i32 786453, i32 0, metadata !"", i32 0, i32 0, i64 0, i64 0, i64 0, i32 0, null, metadata !637, i32 0, i32 0} ; [ DW_TAG_subroutine_type ]
!637 = metadata !{metadata !494, metadata !366, metadata !419, metadata !419, metadata !419, metadata !419}
!638 = metadata !{i32 786478, i32 0, metadata !282, metadata !"replace", metadata !"replace", metadata !"_ZNSs7replaceEN9__gnu_cxx17__normal_iteratorIPcSsEES2_NS0_IPKcSsEES5_", metadata !286, i32 1591, metadata !639, i1 false, i1 false, i32 0, i32 0, null, i32 256, i1 false, null, null, i32 0, metadata !86, i32 1591} ; [ DW_TAG_subprogram ]
!639 = metadata !{i32 786453, i32 0, metadata !"", i32 0, i32 0, i64 0, i64 0, i64 0, i32 0, null, metadata !640, i32 0, i32 0} ; [ DW_TAG_subroutine_type ]
!640 = metadata !{metadata !494, metadata !366, metadata !419, metadata !419, metadata !451, metadata !451}
!641 = metadata !{i32 786478, i32 0, metadata !282, metadata !"_M_replace_aux", metadata !"_M_replace_aux", metadata !"_ZNSs14_M_replace_auxEjjjc", metadata !286, i32 1633, metadata !615, i1 false, i1 false, i32 0, i32 0, null, i32 257, i1 false, null, null, i32 0, metadata !86, i32 1633} ; [ DW_TAG_subprogram ]
!642 = metadata !{i32 786478, i32 0, metadata !282, metadata !"_M_replace_safe", metadata !"_M_replace_safe", metadata !"_ZNSs15_M_replace_safeEjjPKcj", metadata !286, i32 1637, metadata !609, i1 false, i1 false, i32 0, i32 0, null, i32 257, i1 false, null, null, i32 0, metadata !86, i32 1637} ; [ DW_TAG_subprogram ]
!643 = metadata !{i32 786478, i32 0, metadata !282, metadata !"_S_construct_aux_2", metadata !"_S_construct_aux_2", metadata !"_ZNSs18_S_construct_aux_2EjcRKSaIcE", metadata !286, i32 1661, metadata !644, i1 false, i1 false, i32 0, i32 0, null, i32 257, i1 false, null, null, i32 0, metadata !86, i32 1661} ; [ DW_TAG_subprogram ]
!644 = metadata !{i32 786453, i32 0, metadata !"", i32 0, i32 0, i64 0, i64 0, i64 0, i32 0, null, metadata !645, i32 0, i32 0} ; [ DW_TAG_subroutine_type ]
!645 = metadata !{metadata !187, metadata !377, metadata !152, metadata !348}
!646 = metadata !{i32 786478, i32 0, metadata !282, metadata !"_S_construct", metadata !"_S_construct", metadata !"_ZNSs12_S_constructEjcRKSaIcE", metadata !286, i32 1686, metadata !644, i1 false, i1 false, i32 0, i32 0, null, i32 257, i1 false, null, null, i32 0, metadata !86, i32 1686} ; [ DW_TAG_subprogram ]
!647 = metadata !{i32 786478, i32 0, metadata !282, metadata !"copy", metadata !"copy", metadata !"_ZNKSs4copyEPcjj", metadata !286, i32 1702, metadata !648, i1 false, i1 false, i32 0, i32 0, null, i32 256, i1 false, null, null, i32 0, metadata !86, i32 1702} ; [ DW_TAG_subprogram ]
!648 = metadata !{i32 786453, i32 0, metadata !"", i32 0, i32 0, i64 0, i64 0, i64 0, i32 0, null, metadata !649, i32 0, i32 0} ; [ DW_TAG_subroutine_type ]
!649 = metadata !{metadata !377, metadata !361, metadata !187, metadata !377, metadata !377}
!650 = metadata !{i32 786478, i32 0, metadata !282, metadata !"swap", metadata !"swap", metadata !"_ZNSs4swapERSs", metadata !286, i32 1712, metadata !651, i1 false, i1 false, i32 0, i32 0, null, i32 256, i1 false, null, null, i32 0, metadata !86, i32 1712} ; [ DW_TAG_subprogram ]
!651 = metadata !{i32 786453, i32 0, metadata !"", i32 0, i32 0, i64 0, i64 0, i64 0, i32 0, null, metadata !652, i32 0, i32 0} ; [ DW_TAG_subroutine_type ]
!652 = metadata !{null, metadata !366, metadata !494}
!653 = metadata !{i32 786478, i32 0, metadata !282, metadata !"c_str", metadata !"c_str", metadata !"_ZNKSs5c_strEv", metadata !286, i32 1722, metadata !654, i1 false, i1 false, i32 0, i32 0, null, i32 256, i1 false, null, null, i32 0, metadata !86, i32 1722} ; [ DW_TAG_subprogram ]
!654 = metadata !{i32 786453, i32 0, metadata !"", i32 0, i32 0, i64 0, i64 0, i64 0, i32 0, null, metadata !655, i32 0, i32 0} ; [ DW_TAG_subroutine_type ]
!655 = metadata !{metadata !150, metadata !361}
!656 = metadata !{i32 786478, i32 0, metadata !282, metadata !"data", metadata !"data", metadata !"_ZNKSs4dataEv", metadata !286, i32 1732, metadata !654, i1 false, i1 false, i32 0, i32 0, null, i32 256, i1 false, null, null, i32 0, metadata !86, i32 1732} ; [ DW_TAG_subprogram ]
!657 = metadata !{i32 786478, i32 0, metadata !282, metadata !"get_allocator", metadata !"get_allocator", metadata !"_ZNKSs13get_allocatorEv", metadata !286, i32 1739, metadata !658, i1 false, i1 false, i32 0, i32 0, null, i32 256, i1 false, null, null, i32 0, metadata !86, i32 1739} ; [ DW_TAG_subprogram ]
!658 = metadata !{i32 786453, i32 0, metadata !"", i32 0, i32 0, i64 0, i64 0, i64 0, i32 0, null, metadata !659, i32 0, i32 0} ; [ DW_TAG_subroutine_type ]
!659 = metadata !{metadata !660, metadata !361}
!660 = metadata !{i32 786454, metadata !282, metadata !"allocator_type", metadata !283, i32 112, i64 0, i64 0, i64 0, i32 0, metadata !290} ; [ DW_TAG_typedef ]
!661 = metadata !{i32 786478, i32 0, metadata !282, metadata !"find", metadata !"find", metadata !"_ZNKSs4findEPKcjj", metadata !286, i32 1754, metadata !662, i1 false, i1 false, i32 0, i32 0, null, i32 256, i1 false, null, null, i32 0, metadata !86, i32 1754} ; [ DW_TAG_subprogram ]
!662 = metadata !{i32 786453, i32 0, metadata !"", i32 0, i32 0, i64 0, i64 0, i64 0, i32 0, null, metadata !663, i32 0, i32 0} ; [ DW_TAG_subroutine_type ]
!663 = metadata !{metadata !377, metadata !361, metadata !150, metadata !377, metadata !377}
!664 = metadata !{i32 786478, i32 0, metadata !282, metadata !"find", metadata !"find", metadata !"_ZNKSs4findERKSsj", metadata !286, i32 1767, metadata !665, i1 false, i1 false, i32 0, i32 0, null, i32 256, i1 false, null, null, i32 0, metadata !86, i32 1767} ; [ DW_TAG_subprogram ]
!665 = metadata !{i32 786453, i32 0, metadata !"", i32 0, i32 0, i64 0, i64 0, i64 0, i32 0, null, metadata !666, i32 0, i32 0} ; [ DW_TAG_subroutine_type ]
!666 = metadata !{metadata !377, metadata !361, metadata !474, metadata !377}
!667 = metadata !{i32 786478, i32 0, metadata !282, metadata !"find", metadata !"find", metadata !"_ZNKSs4findEPKcj", metadata !286, i32 1781, metadata !668, i1 false, i1 false, i32 0, i32 0, null, i32 256, i1 false, null, null, i32 0, metadata !86, i32 1781} ; [ DW_TAG_subprogram ]
!668 = metadata !{i32 786453, i32 0, metadata !"", i32 0, i32 0, i64 0, i64 0, i64 0, i32 0, null, metadata !669, i32 0, i32 0} ; [ DW_TAG_subroutine_type ]
!669 = metadata !{metadata !377, metadata !361, metadata !150, metadata !377}
!670 = metadata !{i32 786478, i32 0, metadata !282, metadata !"find", metadata !"find", metadata !"_ZNKSs4findEcj", metadata !286, i32 1798, metadata !671, i1 false, i1 false, i32 0, i32 0, null, i32 256, i1 false, null, null, i32 0, metadata !86, i32 1798} ; [ DW_TAG_subprogram ]
!671 = metadata !{i32 786453, i32 0, metadata !"", i32 0, i32 0, i64 0, i64 0, i64 0, i32 0, null, metadata !672, i32 0, i32 0} ; [ DW_TAG_subroutine_type ]
!672 = metadata !{metadata !377, metadata !361, metadata !152, metadata !377}
!673 = metadata !{i32 786478, i32 0, metadata !282, metadata !"rfind", metadata !"rfind", metadata !"_ZNKSs5rfindERKSsj", metadata !286, i32 1811, metadata !665, i1 false, i1 false, i32 0, i32 0, null, i32 256, i1 false, null, null, i32 0, metadata !86, i32 1811} ; [ DW_TAG_subprogram ]
!674 = metadata !{i32 786478, i32 0, metadata !282, metadata !"rfind", metadata !"rfind", metadata !"_ZNKSs5rfindEPKcjj", metadata !286, i32 1826, metadata !662, i1 false, i1 false, i32 0, i32 0, null, i32 256, i1 false, null, null, i32 0, metadata !86, i32 1826} ; [ DW_TAG_subprogram ]
!675 = metadata !{i32 786478, i32 0, metadata !282, metadata !"rfind", metadata !"rfind", metadata !"_ZNKSs5rfindEPKcj", metadata !286, i32 1839, metadata !668, i1 false, i1 false, i32 0, i32 0, null, i32 256, i1 false, null, null, i32 0, metadata !86, i32 1839} ; [ DW_TAG_subprogram ]
!676 = metadata !{i32 786478, i32 0, metadata !282, metadata !"rfind", metadata !"rfind", metadata !"_ZNKSs5rfindEcj", metadata !286, i32 1856, metadata !671, i1 false, i1 false, i32 0, i32 0, null, i32 256, i1 false, null, null, i32 0, metadata !86, i32 1856} ; [ DW_TAG_subprogram ]
!677 = metadata !{i32 786478, i32 0, metadata !282, metadata !"find_first_of", metadata !"find_first_of", metadata !"_ZNKSs13find_first_ofERKSsj", metadata !286, i32 1869, metadata !665, i1 false, i1 false, i32 0, i32 0, null, i32 256, i1 false, null, null, i32 0, metadata !86, i32 1869} ; [ DW_TAG_subprogram ]
!678 = metadata !{i32 786478, i32 0, metadata !282, metadata !"find_first_of", metadata !"find_first_of", metadata !"_ZNKSs13find_first_ofEPKcjj", metadata !286, i32 1884, metadata !662, i1 false, i1 false, i32 0, i32 0, null, i32 256, i1 false, null, null, i32 0, metadata !86, i32 1884} ; [ DW_TAG_subprogram ]
!679 = metadata !{i32 786478, i32 0, metadata !282, metadata !"find_first_of", metadata !"find_first_of", metadata !"_ZNKSs13find_first_ofEPKcj", metadata !286, i32 1897, metadata !668, i1 false, i1 false, i32 0, i32 0, null, i32 256, i1 false, null, null, i32 0, metadata !86, i32 1897} ; [ DW_TAG_subprogram ]
!680 = metadata !{i32 786478, i32 0, metadata !282, metadata !"find_first_of", metadata !"find_first_of", metadata !"_ZNKSs13find_first_ofEcj", metadata !286, i32 1916, metadata !671, i1 false, i1 false, i32 0, i32 0, null, i32 256, i1 false, null, null, i32 0, metadata !86, i32 1916} ; [ DW_TAG_subprogram ]
!681 = metadata !{i32 786478, i32 0, metadata !282, metadata !"find_last_of", metadata !"find_last_of", metadata !"_ZNKSs12find_last_ofERKSsj", metadata !286, i32 1930, metadata !665, i1 false, i1 false, i32 0, i32 0, null, i32 256, i1 false, null, null, i32 0, metadata !86, i32 1930} ; [ DW_TAG_subprogram ]
!682 = metadata !{i32 786478, i32 0, metadata !282, metadata !"find_last_of", metadata !"find_last_of", metadata !"_ZNKSs12find_last_ofEPKcjj", metadata !286, i32 1945, metadata !662, i1 false, i1 false, i32 0, i32 0, null, i32 256, i1 false, null, null, i32 0, metadata !86, i32 1945} ; [ DW_TAG_subprogram ]
!683 = metadata !{i32 786478, i32 0, metadata !282, metadata !"find_last_of", metadata !"find_last_of", metadata !"_ZNKSs12find_last_ofEPKcj", metadata !286, i32 1958, metadata !668, i1 false, i1 false, i32 0, i32 0, null, i32 256, i1 false, null, null, i32 0, metadata !86, i32 1958} ; [ DW_TAG_subprogram ]
!684 = metadata !{i32 786478, i32 0, metadata !282, metadata !"find_last_of", metadata !"find_last_of", metadata !"_ZNKSs12find_last_ofEcj", metadata !286, i32 1977, metadata !671, i1 false, i1 false, i32 0, i32 0, null, i32 256, i1 false, null, null, i32 0, metadata !86, i32 1977} ; [ DW_TAG_subprogram ]
!685 = metadata !{i32 786478, i32 0, metadata !282, metadata !"find_first_not_of", metadata !"find_first_not_of", metadata !"_ZNKSs17find_first_not_ofERKSsj", metadata !286, i32 1991, metadata !665, i1 false, i1 false, i32 0, i32 0, null, i32 256, i1 false, null, null, i32 0, metadata !86, i32 1991} ; [ DW_TAG_subprogram ]
!686 = metadata !{i32 786478, i32 0, metadata !282, metadata !"find_first_not_of", metadata !"find_first_not_of", metadata !"_ZNKSs17find_first_not_ofEPKcjj", metadata !286, i32 2006, metadata !662, i1 false, i1 false, i32 0, i32 0, null, i32 256, i1 false, null, null, i32 0, metadata !86, i32 2006} ; [ DW_TAG_subprogram ]
!687 = metadata !{i32 786478, i32 0, metadata !282, metadata !"find_first_not_of", metadata !"find_first_not_of", metadata !"_ZNKSs17find_first_not_ofEPKcj", metadata !286, i32 2020, metadata !668, i1 false, i1 false, i32 0, i32 0, null, i32 256, i1 false, null, null, i32 0, metadata !86, i32 2020} ; [ DW_TAG_subprogram ]
!688 = metadata !{i32 786478, i32 0, metadata !282, metadata !"find_first_not_of", metadata !"find_first_not_of", metadata !"_ZNKSs17find_first_not_ofEcj", metadata !286, i32 2037, metadata !671, i1 false, i1 false, i32 0, i32 0, null, i32 256, i1 false, null, null, i32 0, metadata !86, i32 2037} ; [ DW_TAG_subprogram ]
!689 = metadata !{i32 786478, i32 0, metadata !282, metadata !"find_last_not_of", metadata !"find_last_not_of", metadata !"_ZNKSs16find_last_not_ofERKSsj", metadata !286, i32 2050, metadata !665, i1 false, i1 false, i32 0, i32 0, null, i32 256, i1 false, null, null, i32 0, metadata !86, i32 2050} ; [ DW_TAG_subprogram ]
!690 = metadata !{i32 786478, i32 0, metadata !282, metadata !"find_last_not_of", metadata !"find_last_not_of", metadata !"_ZNKSs16find_last_not_ofEPKcjj", metadata !286, i32 2066, metadata !662, i1 false, i1 false, i32 0, i32 0, null, i32 256, i1 false, null, null, i32 0, metadata !86, i32 2066} ; [ DW_TAG_subprogram ]
!691 = metadata !{i32 786478, i32 0, metadata !282, metadata !"find_last_not_of", metadata !"find_last_not_of", metadata !"_ZNKSs16find_last_not_ofEPKcj", metadata !286, i32 2079, metadata !668, i1 false, i1 false, i32 0, i32 0, null, i32 256, i1 false, null, null, i32 0, metadata !86, i32 2079} ; [ DW_TAG_subprogram ]
!692 = metadata !{i32 786478, i32 0, metadata !282, metadata !"find_last_not_of", metadata !"find_last_not_of", metadata !"_ZNKSs16find_last_not_ofEcj", metadata !286, i32 2096, metadata !671, i1 false, i1 false, i32 0, i32 0, null, i32 256, i1 false, null, null, i32 0, metadata !86, i32 2096} ; [ DW_TAG_subprogram ]
!693 = metadata !{i32 786478, i32 0, metadata !282, metadata !"substr", metadata !"substr", metadata !"_ZNKSs6substrEjj", metadata !286, i32 2111, metadata !694, i1 false, i1 false, i32 0, i32 0, null, i32 256, i1 false, null, null, i32 0, metadata !86, i32 2111} ; [ DW_TAG_subprogram ]
!694 = metadata !{i32 786453, i32 0, metadata !"", i32 0, i32 0, i64 0, i64 0, i64 0, i32 0, null, metadata !695, i32 0, i32 0} ; [ DW_TAG_subroutine_type ]
!695 = metadata !{metadata !282, metadata !361, metadata !377, metadata !377}
!696 = metadata !{i32 786478, i32 0, metadata !282, metadata !"compare", metadata !"compare", metadata !"_ZNKSs7compareERKSs", metadata !286, i32 2129, metadata !697, i1 false, i1 false, i32 0, i32 0, null, i32 256, i1 false, null, null, i32 0, metadata !86, i32 2129} ; [ DW_TAG_subprogram ]
!697 = metadata !{i32 786453, i32 0, metadata !"", i32 0, i32 0, i64 0, i64 0, i64 0, i32 0, null, metadata !698, i32 0, i32 0} ; [ DW_TAG_subroutine_type ]
!698 = metadata !{metadata !56, metadata !361, metadata !474}
!699 = metadata !{i32 786478, i32 0, metadata !282, metadata !"compare", metadata !"compare", metadata !"_ZNKSs7compareEjjRKSs", metadata !286, i32 2159, metadata !700, i1 false, i1 false, i32 0, i32 0, null, i32 256, i1 false, null, null, i32 0, metadata !86, i32 2159} ; [ DW_TAG_subprogram ]
!700 = metadata !{i32 786453, i32 0, metadata !"", i32 0, i32 0, i64 0, i64 0, i64 0, i32 0, null, metadata !701, i32 0, i32 0} ; [ DW_TAG_subroutine_type ]
!701 = metadata !{metadata !56, metadata !361, metadata !377, metadata !377, metadata !474}
!702 = metadata !{i32 786478, i32 0, metadata !282, metadata !"compare", metadata !"compare", metadata !"_ZNKSs7compareEjjRKSsjj", metadata !286, i32 2183, metadata !703, i1 false, i1 false, i32 0, i32 0, null, i32 256, i1 false, null, null, i32 0, metadata !86, i32 2183} ; [ DW_TAG_subprogram ]
!703 = metadata !{i32 786453, i32 0, metadata !"", i32 0, i32 0, i64 0, i64 0, i64 0, i32 0, null, metadata !704, i32 0, i32 0} ; [ DW_TAG_subroutine_type ]
!704 = metadata !{metadata !56, metadata !361, metadata !377, metadata !377, metadata !474, metadata !377, metadata !377}
!705 = metadata !{i32 786478, i32 0, metadata !282, metadata !"compare", metadata !"compare", metadata !"_ZNKSs7compareEPKc", metadata !286, i32 2201, metadata !706, i1 false, i1 false, i32 0, i32 0, null, i32 256, i1 false, null, null, i32 0, metadata !86, i32 2201} ; [ DW_TAG_subprogram ]
!706 = metadata !{i32 786453, i32 0, metadata !"", i32 0, i32 0, i64 0, i64 0, i64 0, i32 0, null, metadata !707, i32 0, i32 0} ; [ DW_TAG_subroutine_type ]
!707 = metadata !{metadata !56, metadata !361, metadata !150}
!708 = metadata !{i32 786478, i32 0, metadata !282, metadata !"compare", metadata !"compare", metadata !"_ZNKSs7compareEjjPKc", metadata !286, i32 2224, metadata !709, i1 false, i1 false, i32 0, i32 0, null, i32 256, i1 false, null, null, i32 0, metadata !86, i32 2224} ; [ DW_TAG_subprogram ]
!709 = metadata !{i32 786453, i32 0, metadata !"", i32 0, i32 0, i64 0, i64 0, i64 0, i32 0, null, metadata !710, i32 0, i32 0} ; [ DW_TAG_subroutine_type ]
!710 = metadata !{metadata !56, metadata !361, metadata !377, metadata !377, metadata !150}
!711 = metadata !{i32 786478, i32 0, metadata !282, metadata !"compare", metadata !"compare", metadata !"_ZNKSs7compareEjjPKcj", metadata !286, i32 2249, metadata !712, i1 false, i1 false, i32 0, i32 0, null, i32 256, i1 false, null, null, i32 0, metadata !86, i32 2249} ; [ DW_TAG_subprogram ]
!712 = metadata !{i32 786453, i32 0, metadata !"", i32 0, i32 0, i64 0, i64 0, i64 0, i32 0, null, metadata !713, i32 0, i32 0} ; [ DW_TAG_subroutine_type ]
!713 = metadata !{metadata !56, metadata !361, metadata !377, metadata !377, metadata !150, metadata !377}
!714 = metadata !{metadata !715, metadata !716, metadata !769}
!715 = metadata !{i32 786479, null, metadata !"_CharT", metadata !152, null, i32 0, i32 0} ; [ DW_TAG_template_type_parameter ]
!716 = metadata !{i32 786479, null, metadata !"_Traits", metadata !717, null, i32 0, i32 0} ; [ DW_TAG_template_type_parameter ]
!717 = metadata !{i32 786434, metadata !718, metadata !"char_traits<char>", metadata !719, i32 236, i64 8, i64 8, i32 0, i32 0, null, metadata !720, i32 0, null, metadata !768} ; [ DW_TAG_class_type ]
!718 = metadata !{i32 786489, null, metadata !"std", metadata !719, i32 214} ; [ DW_TAG_namespace ]
!719 = metadata !{i32 786473, metadata !"D:/ProgramData/Xilinx/SDx/2016.4/Vivado_HLS/win64/tools/clang/bin\5C..\5Clib\5Cclang\5C3.1/../../../include/c++/4.5.2\5Cbits/char_traits.h", metadata !"E:\5CExercise\5CFPGA\5CFPGA_CNN\5C01_mnist_cnn\5Chls", null} ; [ DW_TAG_file_type ]
!720 = metadata !{metadata !721, metadata !728, metadata !731, metadata !732, metadata !736, metadata !739, metadata !742, metadata !746, metadata !747, metadata !750, metadata !756, metadata !759, metadata !762, metadata !765}
!721 = metadata !{i32 786478, i32 0, metadata !717, metadata !"assign", metadata !"assign", metadata !"_ZNSt11char_traitsIcE6assignERcRKc", metadata !719, i32 245, metadata !722, i1 false, i1 false, i32 0, i32 0, null, i32 256, i1 false, null, null, i32 0, metadata !86, i32 245} ; [ DW_TAG_subprogram ]
!722 = metadata !{i32 786453, i32 0, metadata !"", i32 0, i32 0, i64 0, i64 0, i64 0, i32 0, null, metadata !723, i32 0, i32 0} ; [ DW_TAG_subroutine_type ]
!723 = metadata !{null, metadata !724, metadata !726}
!724 = metadata !{i32 786448, null, null, null, i32 0, i64 0, i64 0, i64 0, i32 0, metadata !725} ; [ DW_TAG_reference_type ]
!725 = metadata !{i32 786454, metadata !717, metadata !"char_type", metadata !719, i32 238, i64 0, i64 0, i64 0, i32 0, metadata !152} ; [ DW_TAG_typedef ]
!726 = metadata !{i32 786448, null, null, null, i32 0, i64 0, i64 0, i64 0, i32 0, metadata !727} ; [ DW_TAG_reference_type ]
!727 = metadata !{i32 786470, null, metadata !"", null, i32 0, i64 0, i64 0, i64 0, i32 0, metadata !725} ; [ DW_TAG_const_type ]
!728 = metadata !{i32 786478, i32 0, metadata !717, metadata !"eq", metadata !"eq", metadata !"_ZNSt11char_traitsIcE2eqERKcS2_", metadata !719, i32 249, metadata !729, i1 false, i1 false, i32 0, i32 0, null, i32 256, i1 false, null, null, i32 0, metadata !86, i32 249} ; [ DW_TAG_subprogram ]
!729 = metadata !{i32 786453, i32 0, metadata !"", i32 0, i32 0, i64 0, i64 0, i64 0, i32 0, null, metadata !730, i32 0, i32 0} ; [ DW_TAG_subroutine_type ]
!730 = metadata !{metadata !212, metadata !726, metadata !726}
!731 = metadata !{i32 786478, i32 0, metadata !717, metadata !"lt", metadata !"lt", metadata !"_ZNSt11char_traitsIcE2ltERKcS2_", metadata !719, i32 253, metadata !729, i1 false, i1 false, i32 0, i32 0, null, i32 256, i1 false, null, null, i32 0, metadata !86, i32 253} ; [ DW_TAG_subprogram ]
!732 = metadata !{i32 786478, i32 0, metadata !717, metadata !"compare", metadata !"compare", metadata !"_ZNSt11char_traitsIcE7compareEPKcS2_j", metadata !719, i32 257, metadata !733, i1 false, i1 false, i32 0, i32 0, null, i32 256, i1 false, null, null, i32 0, metadata !86, i32 257} ; [ DW_TAG_subprogram ]
!733 = metadata !{i32 786453, i32 0, metadata !"", i32 0, i32 0, i64 0, i64 0, i64 0, i32 0, null, metadata !734, i32 0, i32 0} ; [ DW_TAG_subroutine_type ]
!734 = metadata !{metadata !56, metadata !735, metadata !735, metadata !137}
!735 = metadata !{i32 786447, null, metadata !"", null, i32 0, i64 32, i64 32, i64 0, i32 0, metadata !727} ; [ DW_TAG_pointer_type ]
!736 = metadata !{i32 786478, i32 0, metadata !717, metadata !"length", metadata !"length", metadata !"_ZNSt11char_traitsIcE6lengthEPKc", metadata !719, i32 261, metadata !737, i1 false, i1 false, i32 0, i32 0, null, i32 256, i1 false, null, null, i32 0, metadata !86, i32 261} ; [ DW_TAG_subprogram ]
!737 = metadata !{i32 786453, i32 0, metadata !"", i32 0, i32 0, i64 0, i64 0, i64 0, i32 0, null, metadata !738, i32 0, i32 0} ; [ DW_TAG_subroutine_type ]
!738 = metadata !{metadata !137, metadata !735}
!739 = metadata !{i32 786478, i32 0, metadata !717, metadata !"find", metadata !"find", metadata !"_ZNSt11char_traitsIcE4findEPKcjRS1_", metadata !719, i32 265, metadata !740, i1 false, i1 false, i32 0, i32 0, null, i32 256, i1 false, null, null, i32 0, metadata !86, i32 265} ; [ DW_TAG_subprogram ]
!740 = metadata !{i32 786453, i32 0, metadata !"", i32 0, i32 0, i64 0, i64 0, i64 0, i32 0, null, metadata !741, i32 0, i32 0} ; [ DW_TAG_subroutine_type ]
!741 = metadata !{metadata !735, metadata !735, metadata !137, metadata !726}
!742 = metadata !{i32 786478, i32 0, metadata !717, metadata !"move", metadata !"move", metadata !"_ZNSt11char_traitsIcE4moveEPcPKcj", metadata !719, i32 269, metadata !743, i1 false, i1 false, i32 0, i32 0, null, i32 256, i1 false, null, null, i32 0, metadata !86, i32 269} ; [ DW_TAG_subprogram ]
!743 = metadata !{i32 786453, i32 0, metadata !"", i32 0, i32 0, i64 0, i64 0, i64 0, i32 0, null, metadata !744, i32 0, i32 0} ; [ DW_TAG_subroutine_type ]
!744 = metadata !{metadata !745, metadata !745, metadata !735, metadata !137}
!745 = metadata !{i32 786447, null, metadata !"", null, i32 0, i64 32, i64 32, i64 0, i32 0, metadata !725} ; [ DW_TAG_pointer_type ]
!746 = metadata !{i32 786478, i32 0, metadata !717, metadata !"copy", metadata !"copy", metadata !"_ZNSt11char_traitsIcE4copyEPcPKcj", metadata !719, i32 273, metadata !743, i1 false, i1 false, i32 0, i32 0, null, i32 256, i1 false, null, null, i32 0, metadata !86, i32 273} ; [ DW_TAG_subprogram ]
!747 = metadata !{i32 786478, i32 0, metadata !717, metadata !"assign", metadata !"assign", metadata !"_ZNSt11char_traitsIcE6assignEPcjc", metadata !719, i32 277, metadata !748, i1 false, i1 false, i32 0, i32 0, null, i32 256, i1 false, null, null, i32 0, metadata !86, i32 277} ; [ DW_TAG_subprogram ]
!748 = metadata !{i32 786453, i32 0, metadata !"", i32 0, i32 0, i64 0, i64 0, i64 0, i32 0, null, metadata !749, i32 0, i32 0} ; [ DW_TAG_subroutine_type ]
!749 = metadata !{metadata !745, metadata !745, metadata !137, metadata !725}
!750 = metadata !{i32 786478, i32 0, metadata !717, metadata !"to_char_type", metadata !"to_char_type", metadata !"_ZNSt11char_traitsIcE12to_char_typeERKi", metadata !719, i32 281, metadata !751, i1 false, i1 false, i32 0, i32 0, null, i32 256, i1 false, null, null, i32 0, metadata !86, i32 281} ; [ DW_TAG_subprogram ]
!751 = metadata !{i32 786453, i32 0, metadata !"", i32 0, i32 0, i64 0, i64 0, i64 0, i32 0, null, metadata !752, i32 0, i32 0} ; [ DW_TAG_subroutine_type ]
!752 = metadata !{metadata !725, metadata !753}
!753 = metadata !{i32 786448, null, null, null, i32 0, i64 0, i64 0, i64 0, i32 0, metadata !754} ; [ DW_TAG_reference_type ]
!754 = metadata !{i32 786470, null, metadata !"", null, i32 0, i64 0, i64 0, i64 0, i32 0, metadata !755} ; [ DW_TAG_const_type ]
!755 = metadata !{i32 786454, metadata !717, metadata !"int_type", metadata !719, i32 239, i64 0, i64 0, i64 0, i32 0, metadata !56} ; [ DW_TAG_typedef ]
!756 = metadata !{i32 786478, i32 0, metadata !717, metadata !"to_int_type", metadata !"to_int_type", metadata !"_ZNSt11char_traitsIcE11to_int_typeERKc", metadata !719, i32 287, metadata !757, i1 false, i1 false, i32 0, i32 0, null, i32 256, i1 false, null, null, i32 0, metadata !86, i32 287} ; [ DW_TAG_subprogram ]
!757 = metadata !{i32 786453, i32 0, metadata !"", i32 0, i32 0, i64 0, i64 0, i64 0, i32 0, null, metadata !758, i32 0, i32 0} ; [ DW_TAG_subroutine_type ]
!758 = metadata !{metadata !755, metadata !726}
!759 = metadata !{i32 786478, i32 0, metadata !717, metadata !"eq_int_type", metadata !"eq_int_type", metadata !"_ZNSt11char_traitsIcE11eq_int_typeERKiS2_", metadata !719, i32 291, metadata !760, i1 false, i1 false, i32 0, i32 0, null, i32 256, i1 false, null, null, i32 0, metadata !86, i32 291} ; [ DW_TAG_subprogram ]
!760 = metadata !{i32 786453, i32 0, metadata !"", i32 0, i32 0, i64 0, i64 0, i64 0, i32 0, null, metadata !761, i32 0, i32 0} ; [ DW_TAG_subroutine_type ]
!761 = metadata !{metadata !212, metadata !753, metadata !753}
!762 = metadata !{i32 786478, i32 0, metadata !717, metadata !"eof", metadata !"eof", metadata !"_ZNSt11char_traitsIcE3eofEv", metadata !719, i32 295, metadata !763, i1 false, i1 false, i32 0, i32 0, null, i32 256, i1 false, null, null, i32 0, metadata !86, i32 295} ; [ DW_TAG_subprogram ]
!763 = metadata !{i32 786453, i32 0, metadata !"", i32 0, i32 0, i64 0, i64 0, i64 0, i32 0, null, metadata !764, i32 0, i32 0} ; [ DW_TAG_subroutine_type ]
!764 = metadata !{metadata !755}
!765 = metadata !{i32 786478, i32 0, metadata !717, metadata !"not_eof", metadata !"not_eof", metadata !"_ZNSt11char_traitsIcE7not_eofERKi", metadata !719, i32 299, metadata !766, i1 false, i1 false, i32 0, i32 0, null, i32 256, i1 false, null, null, i32 0, metadata !86, i32 299} ; [ DW_TAG_subprogram ]
!766 = metadata !{i32 786453, i32 0, metadata !"", i32 0, i32 0, i64 0, i64 0, i64 0, i32 0, null, metadata !767, i32 0, i32 0} ; [ DW_TAG_subroutine_type ]
!767 = metadata !{metadata !755, metadata !753}
!768 = metadata !{metadata !715}
!769 = metadata !{i32 786479, null, metadata !"_Alloc", metadata !290, null, i32 0, i32 0} ; [ DW_TAG_template_type_parameter ]
!770 = metadata !{i32 786447, i32 0, metadata !"", i32 0, i32 0, i64 32, i64 32, i64 0, i32 64, metadata !262} ; [ DW_TAG_pointer_type ]
!771 = metadata !{i32 786478, i32 0, metadata !113, metadata !"operator==", metadata !"operator==", metadata !"_ZNKSt6localeeqERKS_", metadata !115, i32 224, metadata !772, i1 false, i1 false, i32 0, i32 0, null, i32 256, i1 false, null, null, i32 0, metadata !86, i32 224} ; [ DW_TAG_subprogram ]
!772 = metadata !{i32 786453, i32 0, metadata !"", i32 0, i32 0, i64 0, i64 0, i64 0, i32 0, null, metadata !773, i32 0, i32 0} ; [ DW_TAG_subroutine_type ]
!773 = metadata !{metadata !212, metadata !770, metadata !261}
!774 = metadata !{i32 786478, i32 0, metadata !113, metadata !"operator!=", metadata !"operator!=", metadata !"_ZNKSt6localeneERKS_", metadata !115, i32 233, metadata !772, i1 false, i1 false, i32 0, i32 0, null, i32 256, i1 false, null, null, i32 0, metadata !86, i32 233} ; [ DW_TAG_subprogram ]
!775 = metadata !{i32 786478, i32 0, metadata !113, metadata !"global", metadata !"global", metadata !"_ZNSt6locale6globalERKS_", metadata !115, i32 268, metadata !776, i1 false, i1 false, i32 0, i32 0, null, i32 256, i1 false, null, null, i32 0, metadata !86, i32 268} ; [ DW_TAG_subprogram ]
!776 = metadata !{i32 786453, i32 0, metadata !"", i32 0, i32 0, i64 0, i64 0, i64 0, i32 0, null, metadata !777, i32 0, i32 0} ; [ DW_TAG_subroutine_type ]
!777 = metadata !{metadata !113, metadata !261}
!778 = metadata !{i32 786478, i32 0, metadata !113, metadata !"classic", metadata !"classic", metadata !"_ZNSt6locale7classicEv", metadata !115, i32 274, metadata !779, i1 false, i1 false, i32 0, i32 0, null, i32 256, i1 false, null, null, i32 0, metadata !86, i32 274} ; [ DW_TAG_subprogram ]
!779 = metadata !{i32 786453, i32 0, metadata !"", i32 0, i32 0, i64 0, i64 0, i64 0, i32 0, null, metadata !780, i32 0, i32 0} ; [ DW_TAG_subroutine_type ]
!780 = metadata !{metadata !261}
!781 = metadata !{i32 786478, i32 0, metadata !113, metadata !"locale", metadata !"locale", metadata !"", metadata !115, i32 309, metadata !782, i1 false, i1 false, i32 0, i32 0, null, i32 385, i1 false, null, null, i32 0, metadata !86, i32 309} ; [ DW_TAG_subprogram ]
!782 = metadata !{i32 786453, i32 0, metadata !"", i32 0, i32 0, i64 0, i64 0, i64 0, i32 0, null, metadata !783, i32 0, i32 0} ; [ DW_TAG_subroutine_type ]
!783 = metadata !{null, metadata !257, metadata !118}
!784 = metadata !{i32 786478, i32 0, metadata !113, metadata !"_S_initialize", metadata !"_S_initialize", metadata !"_ZNSt6locale13_S_initializeEv", metadata !115, i32 312, metadata !131, i1 false, i1 false, i32 0, i32 0, null, i32 257, i1 false, null, null, i32 0, metadata !86, i32 312} ; [ DW_TAG_subprogram ]
!785 = metadata !{i32 786478, i32 0, metadata !113, metadata !"_S_initialize_once", metadata !"_S_initialize_once", metadata !"_ZNSt6locale18_S_initialize_onceEv", metadata !115, i32 315, metadata !131, i1 false, i1 false, i32 0, i32 0, null, i32 257, i1 false, null, null, i32 0, metadata !86, i32 315} ; [ DW_TAG_subprogram ]
!786 = metadata !{i32 786478, i32 0, metadata !113, metadata !"_S_normalize_category", metadata !"_S_normalize_category", metadata !"_ZNSt6locale21_S_normalize_categoryEi", metadata !115, i32 318, metadata !787, i1 false, i1 false, i32 0, i32 0, null, i32 257, i1 false, null, null, i32 0, metadata !86, i32 318} ; [ DW_TAG_subprogram ]
!787 = metadata !{i32 786453, i32 0, metadata !"", i32 0, i32 0, i64 0, i64 0, i64 0, i32 0, null, metadata !788, i32 0, i32 0} ; [ DW_TAG_subroutine_type ]
!788 = metadata !{metadata !217, metadata !217}
!789 = metadata !{i32 786478, i32 0, metadata !113, metadata !"_M_coalesce", metadata !"_M_coalesce", metadata !"_ZNSt6locale11_M_coalesceERKS_S1_i", metadata !115, i32 321, metadata !270, i1 false, i1 false, i32 0, i32 0, null, i32 257, i1 false, null, null, i32 0, metadata !86, i32 321} ; [ DW_TAG_subprogram ]
!790 = metadata !{i32 786474, metadata !113, null, metadata !115, i32 0, i64 0, i64 0, i64 0, i32 0, metadata !119} ; [ DW_TAG_friend ]
!791 = metadata !{i32 786474, metadata !113, null, metadata !115, i32 0, i64 0, i64 0, i64 0, i32 0, metadata !126} ; [ DW_TAG_friend ]
!792 = metadata !{i32 786478, i32 0, metadata !49, metadata !"register_callback", metadata !"register_callback", metadata !"_ZNSt8ios_base17register_callbackEPFvNS_5eventERS_iEi", metadata !5, i32 456, metadata !793, i1 false, i1 false, i32 0, i32 0, null, i32 256, i1 false, null, null, i32 0, metadata !86, i32 456} ; [ DW_TAG_subprogram ]
!793 = metadata !{i32 786453, i32 0, metadata !"", i32 0, i32 0, i64 0, i64 0, i64 0, i32 0, null, metadata !794, i32 0, i32 0} ; [ DW_TAG_subroutine_type ]
!794 = metadata !{null, metadata !795, metadata !74, metadata !56}
!795 = metadata !{i32 786447, i32 0, metadata !"", i32 0, i32 0, i64 32, i64 32, i64 0, i32 64, metadata !49} ; [ DW_TAG_pointer_type ]
!796 = metadata !{i32 786478, i32 0, metadata !49, metadata !"_M_call_callbacks", metadata !"_M_call_callbacks", metadata !"_ZNSt8ios_base17_M_call_callbacksENS_5eventE", metadata !5, i32 491, metadata !797, i1 false, i1 false, i32 0, i32 0, null, i32 258, i1 false, null, null, i32 0, metadata !86, i32 491} ; [ DW_TAG_subprogram ]
!797 = metadata !{i32 786453, i32 0, metadata !"", i32 0, i32 0, i64 0, i64 0, i64 0, i32 0, null, metadata !798, i32 0, i32 0} ; [ DW_TAG_subroutine_type ]
!798 = metadata !{null, metadata !795, metadata !48}
!799 = metadata !{i32 786478, i32 0, metadata !49, metadata !"_M_dispose_callbacks", metadata !"_M_dispose_callbacks", metadata !"_ZNSt8ios_base20_M_dispose_callbacksEv", metadata !5, i32 494, metadata !800, i1 false, i1 false, i32 0, i32 0, null, i32 258, i1 false, null, null, i32 0, metadata !86, i32 494} ; [ DW_TAG_subprogram ]
!800 = metadata !{i32 786453, i32 0, metadata !"", i32 0, i32 0, i64 0, i64 0, i64 0, i32 0, null, metadata !801, i32 0, i32 0} ; [ DW_TAG_subroutine_type ]
!801 = metadata !{null, metadata !795}
!802 = metadata !{i32 786478, i32 0, metadata !49, metadata !"_M_grow_words", metadata !"_M_grow_words", metadata !"_ZNSt8ios_base13_M_grow_wordsEib", metadata !5, i32 517, metadata !803, i1 false, i1 false, i32 0, i32 0, null, i32 258, i1 false, null, null, i32 0, metadata !86, i32 517} ; [ DW_TAG_subprogram ]
!803 = metadata !{i32 786453, i32 0, metadata !"", i32 0, i32 0, i64 0, i64 0, i64 0, i32 0, null, metadata !804, i32 0, i32 0} ; [ DW_TAG_subroutine_type ]
!804 = metadata !{metadata !805, metadata !795, metadata !56, metadata !212}
!805 = metadata !{i32 786448, null, null, null, i32 0, i64 0, i64 0, i64 0, i32 0, metadata !95} ; [ DW_TAG_reference_type ]
!806 = metadata !{i32 786478, i32 0, metadata !49, metadata !"_M_init", metadata !"_M_init", metadata !"_ZNSt8ios_base7_M_initEv", metadata !5, i32 523, metadata !800, i1 false, i1 false, i32 0, i32 0, null, i32 258, i1 false, null, null, i32 0, metadata !86, i32 523} ; [ DW_TAG_subprogram ]
!807 = metadata !{i32 786478, i32 0, metadata !49, metadata !"flags", metadata !"flags", metadata !"_ZNKSt8ios_base5flagsEv", metadata !5, i32 549, metadata !808, i1 false, i1 false, i32 0, i32 0, null, i32 256, i1 false, null, null, i32 0, metadata !86, i32 549} ; [ DW_TAG_subprogram ]
!808 = metadata !{i32 786453, i32 0, metadata !"", i32 0, i32 0, i64 0, i64 0, i64 0, i32 0, null, metadata !809, i32 0, i32 0} ; [ DW_TAG_subroutine_type ]
!809 = metadata !{metadata !64, metadata !810}
!810 = metadata !{i32 786447, i32 0, metadata !"", i32 0, i32 0, i64 32, i64 32, i64 0, i32 64, metadata !811} ; [ DW_TAG_pointer_type ]
!811 = metadata !{i32 786470, null, metadata !"", null, i32 0, i64 0, i64 0, i64 0, i32 0, metadata !49} ; [ DW_TAG_const_type ]
!812 = metadata !{i32 786478, i32 0, metadata !49, metadata !"flags", metadata !"flags", metadata !"_ZNSt8ios_base5flagsESt13_Ios_Fmtflags", metadata !5, i32 560, metadata !813, i1 false, i1 false, i32 0, i32 0, null, i32 256, i1 false, null, null, i32 0, metadata !86, i32 560} ; [ DW_TAG_subprogram ]
!813 = metadata !{i32 786453, i32 0, metadata !"", i32 0, i32 0, i64 0, i64 0, i64 0, i32 0, null, metadata !814, i32 0, i32 0} ; [ DW_TAG_subroutine_type ]
!814 = metadata !{metadata !64, metadata !795, metadata !64}
!815 = metadata !{i32 786478, i32 0, metadata !49, metadata !"setf", metadata !"setf", metadata !"_ZNSt8ios_base4setfESt13_Ios_Fmtflags", metadata !5, i32 576, metadata !813, i1 false, i1 false, i32 0, i32 0, null, i32 256, i1 false, null, null, i32 0, metadata !86, i32 576} ; [ DW_TAG_subprogram ]
!816 = metadata !{i32 786478, i32 0, metadata !49, metadata !"setf", metadata !"setf", metadata !"_ZNSt8ios_base4setfESt13_Ios_FmtflagsS0_", metadata !5, i32 593, metadata !817, i1 false, i1 false, i32 0, i32 0, null, i32 256, i1 false, null, null, i32 0, metadata !86, i32 593} ; [ DW_TAG_subprogram ]
!817 = metadata !{i32 786453, i32 0, metadata !"", i32 0, i32 0, i64 0, i64 0, i64 0, i32 0, null, metadata !818, i32 0, i32 0} ; [ DW_TAG_subroutine_type ]
!818 = metadata !{metadata !64, metadata !795, metadata !64, metadata !64}
!819 = metadata !{i32 786478, i32 0, metadata !49, metadata !"unsetf", metadata !"unsetf", metadata !"_ZNSt8ios_base6unsetfESt13_Ios_Fmtflags", metadata !5, i32 608, metadata !820, i1 false, i1 false, i32 0, i32 0, null, i32 256, i1 false, null, null, i32 0, metadata !86, i32 608} ; [ DW_TAG_subprogram ]
!820 = metadata !{i32 786453, i32 0, metadata !"", i32 0, i32 0, i64 0, i64 0, i64 0, i32 0, null, metadata !821, i32 0, i32 0} ; [ DW_TAG_subroutine_type ]
!821 = metadata !{null, metadata !795, metadata !64}
!822 = metadata !{i32 786478, i32 0, metadata !49, metadata !"precision", metadata !"precision", metadata !"_ZNKSt8ios_base9precisionEv", metadata !5, i32 619, metadata !823, i1 false, i1 false, i32 0, i32 0, null, i32 256, i1 false, null, null, i32 0, metadata !86, i32 619} ; [ DW_TAG_subprogram ]
!823 = metadata !{i32 786453, i32 0, metadata !"", i32 0, i32 0, i64 0, i64 0, i64 0, i32 0, null, metadata !824, i32 0, i32 0} ; [ DW_TAG_subroutine_type ]
!824 = metadata !{metadata !58, metadata !810}
!825 = metadata !{i32 786478, i32 0, metadata !49, metadata !"precision", metadata !"precision", metadata !"_ZNSt8ios_base9precisionEi", metadata !5, i32 628, metadata !826, i1 false, i1 false, i32 0, i32 0, null, i32 256, i1 false, null, null, i32 0, metadata !86, i32 628} ; [ DW_TAG_subprogram ]
!826 = metadata !{i32 786453, i32 0, metadata !"", i32 0, i32 0, i64 0, i64 0, i64 0, i32 0, null, metadata !827, i32 0, i32 0} ; [ DW_TAG_subroutine_type ]
!827 = metadata !{metadata !58, metadata !795, metadata !58}
!828 = metadata !{i32 786478, i32 0, metadata !49, metadata !"width", metadata !"width", metadata !"_ZNKSt8ios_base5widthEv", metadata !5, i32 642, metadata !823, i1 false, i1 false, i32 0, i32 0, null, i32 256, i1 false, null, null, i32 0, metadata !86, i32 642} ; [ DW_TAG_subprogram ]
!829 = metadata !{i32 786478, i32 0, metadata !49, metadata !"width", metadata !"width", metadata !"_ZNSt8ios_base5widthEi", metadata !5, i32 651, metadata !826, i1 false, i1 false, i32 0, i32 0, null, i32 256, i1 false, null, null, i32 0, metadata !86, i32 651} ; [ DW_TAG_subprogram ]
!830 = metadata !{i32 786478, i32 0, metadata !49, metadata !"sync_with_stdio", metadata !"sync_with_stdio", metadata !"_ZNSt8ios_base15sync_with_stdioEb", metadata !5, i32 670, metadata !831, i1 false, i1 false, i32 0, i32 0, null, i32 256, i1 false, null, null, i32 0, metadata !86, i32 670} ; [ DW_TAG_subprogram ]
!831 = metadata !{i32 786453, i32 0, metadata !"", i32 0, i32 0, i64 0, i64 0, i64 0, i32 0, null, metadata !832, i32 0, i32 0} ; [ DW_TAG_subroutine_type ]
!832 = metadata !{metadata !212, metadata !212}
!833 = metadata !{i32 786478, i32 0, metadata !49, metadata !"imbue", metadata !"imbue", metadata !"_ZNSt8ios_base5imbueERKSt6locale", metadata !5, i32 682, metadata !834, i1 false, i1 false, i32 0, i32 0, null, i32 256, i1 false, null, null, i32 0, metadata !86, i32 682} ; [ DW_TAG_subprogram ]
!834 = metadata !{i32 786453, i32 0, metadata !"", i32 0, i32 0, i64 0, i64 0, i64 0, i32 0, null, metadata !835, i32 0, i32 0} ; [ DW_TAG_subroutine_type ]
!835 = metadata !{metadata !113, metadata !795, metadata !261}
!836 = metadata !{i32 786478, i32 0, metadata !49, metadata !"getloc", metadata !"getloc", metadata !"_ZNKSt8ios_base6getlocEv", metadata !5, i32 693, metadata !837, i1 false, i1 false, i32 0, i32 0, null, i32 256, i1 false, null, null, i32 0, metadata !86, i32 693} ; [ DW_TAG_subprogram ]
!837 = metadata !{i32 786453, i32 0, metadata !"", i32 0, i32 0, i64 0, i64 0, i64 0, i32 0, null, metadata !838, i32 0, i32 0} ; [ DW_TAG_subroutine_type ]
!838 = metadata !{metadata !113, metadata !810}
!839 = metadata !{i32 786478, i32 0, metadata !49, metadata !"_M_getloc", metadata !"_M_getloc", metadata !"_ZNKSt8ios_base9_M_getlocEv", metadata !5, i32 704, metadata !840, i1 false, i1 false, i32 0, i32 0, null, i32 256, i1 false, null, null, i32 0, metadata !86, i32 704} ; [ DW_TAG_subprogram ]
!840 = metadata !{i32 786453, i32 0, metadata !"", i32 0, i32 0, i64 0, i64 0, i64 0, i32 0, null, metadata !841, i32 0, i32 0} ; [ DW_TAG_subroutine_type ]
!841 = metadata !{metadata !261, metadata !810}
!842 = metadata !{i32 786478, i32 0, metadata !49, metadata !"xalloc", metadata !"xalloc", metadata !"_ZNSt8ios_base6xallocEv", metadata !5, i32 723, metadata !54, i1 false, i1 false, i32 0, i32 0, null, i32 256, i1 false, null, null, i32 0, metadata !86, i32 723} ; [ DW_TAG_subprogram ]
!843 = metadata !{i32 786478, i32 0, metadata !49, metadata !"iword", metadata !"iword", metadata !"_ZNSt8ios_base5iwordEi", metadata !5, i32 739, metadata !844, i1 false, i1 false, i32 0, i32 0, null, i32 256, i1 false, null, null, i32 0, metadata !86, i32 739} ; [ DW_TAG_subprogram ]
!844 = metadata !{i32 786453, i32 0, metadata !"", i32 0, i32 0, i64 0, i64 0, i64 0, i32 0, null, metadata !845, i32 0, i32 0} ; [ DW_TAG_subroutine_type ]
!845 = metadata !{metadata !846, metadata !795, metadata !56}
!846 = metadata !{i32 786448, null, null, null, i32 0, i64 0, i64 0, i64 0, i32 0, metadata !100} ; [ DW_TAG_reference_type ]
!847 = metadata !{i32 786478, i32 0, metadata !49, metadata !"pword", metadata !"pword", metadata !"_ZNSt8ios_base5pwordEi", metadata !5, i32 760, metadata !848, i1 false, i1 false, i32 0, i32 0, null, i32 256, i1 false, null, null, i32 0, metadata !86, i32 760} ; [ DW_TAG_subprogram ]
!848 = metadata !{i32 786453, i32 0, metadata !"", i32 0, i32 0, i64 0, i64 0, i64 0, i32 0, null, metadata !849, i32 0, i32 0} ; [ DW_TAG_subroutine_type ]
!849 = metadata !{metadata !850, metadata !795, metadata !56}
!850 = metadata !{i32 786448, null, null, null, i32 0, i64 0, i64 0, i64 0, i32 0, metadata !98} ; [ DW_TAG_reference_type ]
!851 = metadata !{i32 786478, i32 0, metadata !49, metadata !"~ios_base", metadata !"~ios_base", metadata !"", metadata !5, i32 776, metadata !800, i1 false, i1 false, i32 1, i32 0, metadata !49, i32 256, i1 false, null, null, i32 0, metadata !86, i32 776} ; [ DW_TAG_subprogram ]
!852 = metadata !{i32 786478, i32 0, metadata !49, metadata !"ios_base", metadata !"ios_base", metadata !"", metadata !5, i32 779, metadata !800, i1 false, i1 false, i32 0, i32 0, null, i32 258, i1 false, null, null, i32 0, metadata !86, i32 779} ; [ DW_TAG_subprogram ]
!853 = metadata !{i32 786478, i32 0, metadata !49, metadata !"ios_base", metadata !"ios_base", metadata !"", metadata !5, i32 784, metadata !854, i1 false, i1 false, i32 0, i32 0, null, i32 257, i1 false, null, null, i32 0, metadata !86, i32 784} ; [ DW_TAG_subprogram ]
!854 = metadata !{i32 786453, i32 0, metadata !"", i32 0, i32 0, i64 0, i64 0, i64 0, i32 0, null, metadata !855, i32 0, i32 0} ; [ DW_TAG_subroutine_type ]
!855 = metadata !{null, metadata !795, metadata !856}
!856 = metadata !{i32 786448, null, null, null, i32 0, i64 0, i64 0, i64 0, i32 0, metadata !811} ; [ DW_TAG_reference_type ]
!857 = metadata !{i32 786478, i32 0, metadata !49, metadata !"operator=", metadata !"operator=", metadata !"_ZNSt8ios_baseaSERKS_", metadata !5, i32 787, metadata !858, i1 false, i1 false, i32 0, i32 0, null, i32 257, i1 false, null, null, i32 0, metadata !86, i32 787} ; [ DW_TAG_subprogram ]
!858 = metadata !{i32 786453, i32 0, metadata !"", i32 0, i32 0, i64 0, i64 0, i64 0, i32 0, null, metadata !859, i32 0, i32 0} ; [ DW_TAG_subroutine_type ]
!859 = metadata !{metadata !78, metadata !795, metadata !856}
!860 = metadata !{metadata !861, metadata !862, metadata !863}
!861 = metadata !{i32 786472, metadata !"erase_event", i64 0} ; [ DW_TAG_enumerator ]
!862 = metadata !{i32 786472, metadata !"imbue_event", i64 1} ; [ DW_TAG_enumerator ]
!863 = metadata !{i32 786472, metadata !"copyfmt_event", i64 2} ; [ DW_TAG_enumerator ]
!864 = metadata !{i32 786436, null, metadata !"BaseMode", metadata !865, i32 557, i64 5, i64 8, i32 0, i32 0, null, metadata !866, i32 0, i32 0} ; [ DW_TAG_enumeration_type ]
!865 = metadata !{i32 786473, metadata !"D:/ProgramData/Xilinx/SDx/2016.4/Vivado_HLS/common/technology/autopilot/ap_int_syn.h", metadata !"E:\5CExercise\5CFPGA\5CFPGA_CNN\5C01_mnist_cnn\5Chls", null} ; [ DW_TAG_file_type ]
!866 = metadata !{metadata !867, metadata !868, metadata !869, metadata !870}
!867 = metadata !{i32 786472, metadata !"SC_BIN", i64 2} ; [ DW_TAG_enumerator ]
!868 = metadata !{i32 786472, metadata !"SC_OCT", i64 8} ; [ DW_TAG_enumerator ]
!869 = metadata !{i32 786472, metadata !"SC_DEC", i64 10} ; [ DW_TAG_enumerator ]
!870 = metadata !{i32 786472, metadata !"SC_HEX", i64 16} ; [ DW_TAG_enumerator ]
!871 = metadata !{metadata !872}
!872 = metadata !{i32 0}
!873 = metadata !{metadata !874}
!874 = metadata !{metadata !875, metadata !2469, metadata !4929, metadata !4934, metadata !4935, metadata !4936, metadata !4937, metadata !4941, metadata !4942, metadata !4943, metadata !4944, metadata !4945, metadata !4946, metadata !4947, metadata !4948, metadata !4954, metadata !4955, metadata !4956, metadata !4957, metadata !4958, metadata !4959, metadata !4960, metadata !4961, metadata !4967, metadata !4968, metadata !4969, metadata !4970, metadata !4971, metadata !4972, metadata !4973, metadata !4974, metadata !4980, metadata !4983, metadata !4991, metadata !4992, metadata !4993, metadata !4994, metadata !4997, metadata !4998, metadata !4999, metadata !5005, metadata !5009, metadata !5010, metadata !5011, metadata !5012, metadata !5013, metadata !5014, metadata !5015, metadata !5016, metadata !5022, metadata !5023, metadata !5024, metadata !5025, metadata !5026, metadata !5027, metadata !5028, metadata !5029, metadata !5035, metadata !5036, metadata !5037, metadata !5038, metadata !5039, metadata !5040, metadata !5041, metadata !5042, metadata !5048, metadata !5049, metadata !5050, metadata !5051, metadata !5052, metadata !5053, metadata !5054, metadata !5055, metadata !5396, metadata !5397, metadata !5398, metadata !5399, metadata !5673, metadata !5677, metadata !5678, metadata !5679, metadata !5680, metadata !5683, metadata !5684, metadata !5687, metadata !5688, metadata !5694, metadata !5700, metadata !5701, metadata !5702, metadata !5703, metadata !5704, metadata !5705, metadata !5706, metadata !5707, metadata !5708, metadata !5711, metadata !5714, metadata !5715, metadata !5716, metadata !5717, metadata !5718, metadata !5724, metadata !5725}
!875 = metadata !{i32 786478, i32 0, metadata !876, metadata !"Pool", metadata !"Pool", metadata !"_Z4Pool7ap_uintILi16EES0_S0_S_ILi8EES1_S_ILi2EEPfS3_", metadata !876, i32 6, metadata !877, i1 false, i1 true, i32 0, i32 0, null, i32 256, i1 false, null, null, null, metadata !86, i32 10} ; [ DW_TAG_subprogram ]
!876 = metadata !{i32 786473, metadata !"pool_core/pool_core.cpp", metadata !"E:\5CExercise\5CFPGA\5CFPGA_CNN\5C01_mnist_cnn\5Chls", null} ; [ DW_TAG_file_type ]
!877 = metadata !{i32 786453, i32 0, metadata !"", i32 0, i32 0, i64 0, i64 0, i64 0, i32 0, null, metadata !878, i32 0, i32 0} ; [ DW_TAG_subroutine_type ]
!878 = metadata !{null, metadata !879, metadata !879, metadata !879, metadata !1511, metadata !1511, metadata !2110, metadata !2467, metadata !2467}
!879 = metadata !{i32 786434, null, metadata !"ap_uint<16>", metadata !880, i32 136, i64 16, i64 16, i32 0, i32 0, null, metadata !881, i32 0, null, metadata !1510} ; [ DW_TAG_class_type ]
!880 = metadata !{i32 786473, metadata !"D:/ProgramData/Xilinx/SDx/2016.4/Vivado_HLS/common/technology/autopilot\5Cap_int.h", metadata !"E:\5CExercise\5CFPGA\5CFPGA_CNN\5C01_mnist_cnn\5Chls", null} ; [ DW_TAG_file_type ]
!881 = metadata !{metadata !882, metadata !1435, metadata !1439, metadata !1442, metadata !1445, metadata !1448, metadata !1451, metadata !1454, metadata !1457, metadata !1460, metadata !1463, metadata !1466, metadata !1469, metadata !1472, metadata !1475, metadata !1478, metadata !1481, metadata !1484, metadata !1487, metadata !1490, metadata !1497, metadata !1502, metadata !1506, metadata !1509}
!882 = metadata !{i32 786460, metadata !879, null, metadata !880, i32 0, i64 0, i64 0, i64 0, i32 0, metadata !883} ; [ DW_TAG_inheritance ]
!883 = metadata !{i32 786434, null, metadata !"ap_int_base<16, false, true>", metadata !865, i32 1352, i64 16, i64 16, i32 0, i32 0, null, metadata !884, i32 0, null, metadata !1433} ; [ DW_TAG_class_type ]
!884 = metadata !{metadata !885, metadata !898, metadata !902, metadata !910, metadata !916, metadata !919, metadata !923, metadata !927, metadata !931, metadata !935, metadata !938, metadata !941, metadata !944, metadata !948, metadata !953, metadata !958, metadata !963, metadata !967, metadata !971, metadata !974, metadata !977, metadata !981, metadata !984, metadata !987, metadata !988, metadata !992, metadata !995, metadata !998, metadata !1001, metadata !1004, metadata !1007, metadata !1010, metadata !1013, metadata !1016, metadata !1019, metadata !1022, metadata !1025, metadata !1034, metadata !1037, metadata !1040, metadata !1043, metadata !1046, metadata !1049, metadata !1052, metadata !1055, metadata !1058, metadata !1061, metadata !1064, metadata !1067, metadata !1070, metadata !1071, metadata !1075, metadata !1078, metadata !1079, metadata !1080, metadata !1081, metadata !1082, metadata !1083, metadata !1086, metadata !1087, metadata !1090, metadata !1091, metadata !1092, metadata !1093, metadata !1094, metadata !1095, metadata !1098, metadata !1099, metadata !1100, metadata !1103, metadata !1104, metadata !1107, metadata !1108, metadata !1393, metadata !1397, metadata !1398, metadata !1401, metadata !1402, metadata !1406, metadata !1407, metadata !1408, metadata !1409, metadata !1412, metadata !1413, metadata !1414, metadata !1415, metadata !1416, metadata !1417, metadata !1418, metadata !1419, metadata !1420, metadata !1421, metadata !1422, metadata !1423, metadata !1426, metadata !1429, metadata !1432}
!885 = metadata !{i32 786460, metadata !883, null, metadata !865, i32 0, i64 0, i64 0, i64 0, i32 0, metadata !886} ; [ DW_TAG_inheritance ]
!886 = metadata !{i32 786434, null, metadata !"ssdm_int<16 + 1024 * 0, false>", metadata !887, i32 18, i64 16, i64 16, i32 0, i32 0, null, metadata !888, i32 0, null, metadata !895} ; [ DW_TAG_class_type ]
!887 = metadata !{i32 786473, metadata !"D:/ProgramData/Xilinx/SDx/2016.4/Vivado_HLS/common/technology/autopilot/etc/autopilot_dt.def", metadata !"E:\5CExercise\5CFPGA\5CFPGA_CNN\5C01_mnist_cnn\5Chls", null} ; [ DW_TAG_file_type ]
!888 = metadata !{metadata !889, metadata !891}
!889 = metadata !{i32 786445, metadata !886, metadata !"V", metadata !887, i32 18, i64 16, i64 16, i64 0, i32 0, metadata !890} ; [ DW_TAG_member ]
!890 = metadata !{i32 786468, null, metadata !"uint16", null, i32 0, i64 16, i64 16, i64 0, i32 0, i32 7} ; [ DW_TAG_base_type ]
!891 = metadata !{i32 786478, i32 0, metadata !886, metadata !"ssdm_int", metadata !"ssdm_int", metadata !"", metadata !887, i32 18, metadata !892, i1 false, i1 false, i32 0, i32 0, null, i32 256, i1 false, null, null, i32 0, metadata !86, i32 18} ; [ DW_TAG_subprogram ]
!892 = metadata !{i32 786453, i32 0, metadata !"", i32 0, i32 0, i64 0, i64 0, i64 0, i32 0, null, metadata !893, i32 0, i32 0} ; [ DW_TAG_subroutine_type ]
!893 = metadata !{null, metadata !894}
!894 = metadata !{i32 786447, i32 0, metadata !"", i32 0, i32 0, i64 32, i64 32, i64 0, i32 64, metadata !886} ; [ DW_TAG_pointer_type ]
!895 = metadata !{metadata !896, metadata !897}
!896 = metadata !{i32 786480, null, metadata !"_AP_N", metadata !56, i64 16, null, i32 0, i32 0} ; [ DW_TAG_template_value_parameter ]
!897 = metadata !{i32 786480, null, metadata !"_AP_S", metadata !212, i64 0, null, i32 0, i32 0} ; [ DW_TAG_template_value_parameter ]
!898 = metadata !{i32 786478, i32 0, metadata !883, metadata !"ap_int_base", metadata !"ap_int_base", metadata !"", metadata !865, i32 1393, metadata !899, i1 false, i1 false, i32 0, i32 0, null, i32 256, i1 false, null, null, i32 0, metadata !86, i32 1393} ; [ DW_TAG_subprogram ]
!899 = metadata !{i32 786453, i32 0, metadata !"", i32 0, i32 0, i64 0, i64 0, i64 0, i32 0, null, metadata !900, i32 0, i32 0} ; [ DW_TAG_subroutine_type ]
!900 = metadata !{null, metadata !901}
!901 = metadata !{i32 786447, i32 0, metadata !"", i32 0, i32 0, i64 32, i64 32, i64 0, i32 64, metadata !883} ; [ DW_TAG_pointer_type ]
!902 = metadata !{i32 786478, i32 0, metadata !883, metadata !"ap_int_base<16, false>", metadata !"ap_int_base<16, false>", metadata !"", metadata !865, i32 1405, metadata !903, i1 false, i1 false, i32 0, i32 0, null, i32 256, i1 false, null, metadata !907, i32 0, metadata !86, i32 1405} ; [ DW_TAG_subprogram ]
!903 = metadata !{i32 786453, i32 0, metadata !"", i32 0, i32 0, i64 0, i64 0, i64 0, i32 0, null, metadata !904, i32 0, i32 0} ; [ DW_TAG_subroutine_type ]
!904 = metadata !{null, metadata !901, metadata !905}
!905 = metadata !{i32 786448, null, null, null, i32 0, i64 0, i64 0, i64 0, i32 0, metadata !906} ; [ DW_TAG_reference_type ]
!906 = metadata !{i32 786470, null, metadata !"", null, i32 0, i64 0, i64 0, i64 0, i32 0, metadata !883} ; [ DW_TAG_const_type ]
!907 = metadata !{metadata !908, metadata !909}
!908 = metadata !{i32 786480, null, metadata !"_AP_W2", metadata !56, i64 16, null, i32 0, i32 0} ; [ DW_TAG_template_value_parameter ]
!909 = metadata !{i32 786480, null, metadata !"_AP_S2", metadata !212, i64 0, null, i32 0, i32 0} ; [ DW_TAG_template_value_parameter ]
!910 = metadata !{i32 786478, i32 0, metadata !883, metadata !"ap_int_base<16, false>", metadata !"ap_int_base<16, false>", metadata !"", metadata !865, i32 1408, metadata !911, i1 false, i1 false, i32 0, i32 0, null, i32 256, i1 false, null, metadata !907, i32 0, metadata !86, i32 1408} ; [ DW_TAG_subprogram ]
!911 = metadata !{i32 786453, i32 0, metadata !"", i32 0, i32 0, i64 0, i64 0, i64 0, i32 0, null, metadata !912, i32 0, i32 0} ; [ DW_TAG_subroutine_type ]
!912 = metadata !{null, metadata !901, metadata !913}
!913 = metadata !{i32 786448, null, null, null, i32 0, i64 0, i64 0, i64 0, i32 0, metadata !914} ; [ DW_TAG_reference_type ]
!914 = metadata !{i32 786470, null, metadata !"", null, i32 0, i64 0, i64 0, i64 0, i32 0, metadata !915} ; [ DW_TAG_const_type ]
!915 = metadata !{i32 786485, null, metadata !"", null, i32 0, i64 0, i64 0, i64 0, i32 0, metadata !883} ; [ DW_TAG_volatile_type ]
!916 = metadata !{i32 786478, i32 0, metadata !883, metadata !"ap_int_base", metadata !"ap_int_base", metadata !"", metadata !865, i32 1415, metadata !917, i1 false, i1 false, i32 0, i32 0, null, i32 384, i1 false, null, null, i32 0, metadata !86, i32 1415} ; [ DW_TAG_subprogram ]
!917 = metadata !{i32 786453, i32 0, metadata !"", i32 0, i32 0, i64 0, i64 0, i64 0, i32 0, null, metadata !918, i32 0, i32 0} ; [ DW_TAG_subroutine_type ]
!918 = metadata !{null, metadata !901, metadata !212}
!919 = metadata !{i32 786478, i32 0, metadata !883, metadata !"ap_int_base", metadata !"ap_int_base", metadata !"", metadata !865, i32 1416, metadata !920, i1 false, i1 false, i32 0, i32 0, null, i32 384, i1 false, null, null, i32 0, metadata !86, i32 1416} ; [ DW_TAG_subprogram ]
!920 = metadata !{i32 786453, i32 0, metadata !"", i32 0, i32 0, i64 0, i64 0, i64 0, i32 0, null, metadata !921, i32 0, i32 0} ; [ DW_TAG_subroutine_type ]
!921 = metadata !{null, metadata !901, metadata !922}
!922 = metadata !{i32 786468, null, metadata !"signed char", null, i32 0, i64 8, i64 8, i64 0, i32 0, i32 6} ; [ DW_TAG_base_type ]
!923 = metadata !{i32 786478, i32 0, metadata !883, metadata !"ap_int_base", metadata !"ap_int_base", metadata !"", metadata !865, i32 1417, metadata !924, i1 false, i1 false, i32 0, i32 0, null, i32 384, i1 false, null, null, i32 0, metadata !86, i32 1417} ; [ DW_TAG_subprogram ]
!924 = metadata !{i32 786453, i32 0, metadata !"", i32 0, i32 0, i64 0, i64 0, i64 0, i32 0, null, metadata !925, i32 0, i32 0} ; [ DW_TAG_subroutine_type ]
!925 = metadata !{null, metadata !901, metadata !926}
!926 = metadata !{i32 786468, null, metadata !"unsigned char", null, i32 0, i64 8, i64 8, i64 0, i32 0, i32 8} ; [ DW_TAG_base_type ]
!927 = metadata !{i32 786478, i32 0, metadata !883, metadata !"ap_int_base", metadata !"ap_int_base", metadata !"", metadata !865, i32 1418, metadata !928, i1 false, i1 false, i32 0, i32 0, null, i32 384, i1 false, null, null, i32 0, metadata !86, i32 1418} ; [ DW_TAG_subprogram ]
!928 = metadata !{i32 786453, i32 0, metadata !"", i32 0, i32 0, i64 0, i64 0, i64 0, i32 0, null, metadata !929, i32 0, i32 0} ; [ DW_TAG_subroutine_type ]
!929 = metadata !{null, metadata !901, metadata !930}
!930 = metadata !{i32 786468, null, metadata !"short", null, i32 0, i64 16, i64 16, i64 0, i32 0, i32 5} ; [ DW_TAG_base_type ]
!931 = metadata !{i32 786478, i32 0, metadata !883, metadata !"ap_int_base", metadata !"ap_int_base", metadata !"", metadata !865, i32 1419, metadata !932, i1 false, i1 false, i32 0, i32 0, null, i32 384, i1 false, null, null, i32 0, metadata !86, i32 1419} ; [ DW_TAG_subprogram ]
!932 = metadata !{i32 786453, i32 0, metadata !"", i32 0, i32 0, i64 0, i64 0, i64 0, i32 0, null, metadata !933, i32 0, i32 0} ; [ DW_TAG_subroutine_type ]
!933 = metadata !{null, metadata !901, metadata !934}
!934 = metadata !{i32 786468, null, metadata !"unsigned short", null, i32 0, i64 16, i64 16, i64 0, i32 0, i32 7} ; [ DW_TAG_base_type ]
!935 = metadata !{i32 786478, i32 0, metadata !883, metadata !"ap_int_base", metadata !"ap_int_base", metadata !"", metadata !865, i32 1420, metadata !936, i1 false, i1 false, i32 0, i32 0, null, i32 384, i1 false, null, null, i32 0, metadata !86, i32 1420} ; [ DW_TAG_subprogram ]
!936 = metadata !{i32 786453, i32 0, metadata !"", i32 0, i32 0, i64 0, i64 0, i64 0, i32 0, null, metadata !937, i32 0, i32 0} ; [ DW_TAG_subroutine_type ]
!937 = metadata !{null, metadata !901, metadata !56}
!938 = metadata !{i32 786478, i32 0, metadata !883, metadata !"ap_int_base", metadata !"ap_int_base", metadata !"", metadata !865, i32 1421, metadata !939, i1 false, i1 false, i32 0, i32 0, null, i32 384, i1 false, null, null, i32 0, metadata !86, i32 1421} ; [ DW_TAG_subprogram ]
!939 = metadata !{i32 786453, i32 0, metadata !"", i32 0, i32 0, i64 0, i64 0, i64 0, i32 0, null, metadata !940, i32 0, i32 0} ; [ DW_TAG_subroutine_type ]
!940 = metadata !{null, metadata !901, metadata !138}
!941 = metadata !{i32 786478, i32 0, metadata !883, metadata !"ap_int_base", metadata !"ap_int_base", metadata !"", metadata !865, i32 1422, metadata !942, i1 false, i1 false, i32 0, i32 0, null, i32 384, i1 false, null, null, i32 0, metadata !86, i32 1422} ; [ DW_TAG_subprogram ]
!942 = metadata !{i32 786453, i32 0, metadata !"", i32 0, i32 0, i64 0, i64 0, i64 0, i32 0, null, metadata !943, i32 0, i32 0} ; [ DW_TAG_subroutine_type ]
!943 = metadata !{null, metadata !901, metadata !100}
!944 = metadata !{i32 786478, i32 0, metadata !883, metadata !"ap_int_base", metadata !"ap_int_base", metadata !"", metadata !865, i32 1423, metadata !945, i1 false, i1 false, i32 0, i32 0, null, i32 384, i1 false, null, null, i32 0, metadata !86, i32 1423} ; [ DW_TAG_subprogram ]
!945 = metadata !{i32 786453, i32 0, metadata !"", i32 0, i32 0, i64 0, i64 0, i64 0, i32 0, null, metadata !946, i32 0, i32 0} ; [ DW_TAG_subroutine_type ]
!946 = metadata !{null, metadata !901, metadata !947}
!947 = metadata !{i32 786468, null, metadata !"long unsigned int", null, i32 0, i64 32, i64 32, i64 0, i32 0, i32 7} ; [ DW_TAG_base_type ]
!948 = metadata !{i32 786478, i32 0, metadata !883, metadata !"ap_int_base", metadata !"ap_int_base", metadata !"", metadata !865, i32 1424, metadata !949, i1 false, i1 false, i32 0, i32 0, null, i32 384, i1 false, null, null, i32 0, metadata !86, i32 1424} ; [ DW_TAG_subprogram ]
!949 = metadata !{i32 786453, i32 0, metadata !"", i32 0, i32 0, i64 0, i64 0, i64 0, i32 0, null, metadata !950, i32 0, i32 0} ; [ DW_TAG_subroutine_type ]
!950 = metadata !{null, metadata !901, metadata !951}
!951 = metadata !{i32 786454, null, metadata !"ap_slong", metadata !865, i32 66, i64 0, i64 0, i64 0, i32 0, metadata !952} ; [ DW_TAG_typedef ]
!952 = metadata !{i32 786468, null, metadata !"long long int", null, i32 0, i64 64, i64 64, i64 0, i32 0, i32 5} ; [ DW_TAG_base_type ]
!953 = metadata !{i32 786478, i32 0, metadata !883, metadata !"ap_int_base", metadata !"ap_int_base", metadata !"", metadata !865, i32 1425, metadata !954, i1 false, i1 false, i32 0, i32 0, null, i32 384, i1 false, null, null, i32 0, metadata !86, i32 1425} ; [ DW_TAG_subprogram ]
!954 = metadata !{i32 786453, i32 0, metadata !"", i32 0, i32 0, i64 0, i64 0, i64 0, i32 0, null, metadata !955, i32 0, i32 0} ; [ DW_TAG_subroutine_type ]
!955 = metadata !{null, metadata !901, metadata !956}
!956 = metadata !{i32 786454, null, metadata !"ap_ulong", metadata !865, i32 65, i64 0, i64 0, i64 0, i32 0, metadata !957} ; [ DW_TAG_typedef ]
!957 = metadata !{i32 786468, null, metadata !"long long unsigned int", null, i32 0, i64 64, i64 64, i64 0, i32 0, i32 7} ; [ DW_TAG_base_type ]
!958 = metadata !{i32 786478, i32 0, metadata !883, metadata !"ap_int_base", metadata !"ap_int_base", metadata !"", metadata !865, i32 1426, metadata !959, i1 false, i1 false, i32 0, i32 0, null, i32 384, i1 false, null, null, i32 0, metadata !86, i32 1426} ; [ DW_TAG_subprogram ]
!959 = metadata !{i32 786453, i32 0, metadata !"", i32 0, i32 0, i64 0, i64 0, i64 0, i32 0, null, metadata !960, i32 0, i32 0} ; [ DW_TAG_subroutine_type ]
!960 = metadata !{null, metadata !901, metadata !961}
!961 = metadata !{i32 786454, null, metadata !"half", metadata !865, i32 33, i64 0, i64 0, i64 0, i32 0, metadata !962} ; [ DW_TAG_typedef ]
!962 = metadata !{i32 786468, null, metadata !"half", null, i32 0, i64 16, i64 16, i64 0, i32 0, i32 4} ; [ DW_TAG_base_type ]
!963 = metadata !{i32 786478, i32 0, metadata !883, metadata !"ap_int_base", metadata !"ap_int_base", metadata !"", metadata !865, i32 1427, metadata !964, i1 false, i1 false, i32 0, i32 0, null, i32 384, i1 false, null, null, i32 0, metadata !86, i32 1427} ; [ DW_TAG_subprogram ]
!964 = metadata !{i32 786453, i32 0, metadata !"", i32 0, i32 0, i64 0, i64 0, i64 0, i32 0, null, metadata !965, i32 0, i32 0} ; [ DW_TAG_subroutine_type ]
!965 = metadata !{null, metadata !901, metadata !966}
!966 = metadata !{i32 786468, null, metadata !"float", null, i32 0, i64 32, i64 32, i64 0, i32 0, i32 4} ; [ DW_TAG_base_type ]
!967 = metadata !{i32 786478, i32 0, metadata !883, metadata !"ap_int_base", metadata !"ap_int_base", metadata !"", metadata !865, i32 1428, metadata !968, i1 false, i1 false, i32 0, i32 0, null, i32 384, i1 false, null, null, i32 0, metadata !86, i32 1428} ; [ DW_TAG_subprogram ]
!968 = metadata !{i32 786453, i32 0, metadata !"", i32 0, i32 0, i64 0, i64 0, i64 0, i32 0, null, metadata !969, i32 0, i32 0} ; [ DW_TAG_subroutine_type ]
!969 = metadata !{null, metadata !901, metadata !970}
!970 = metadata !{i32 786468, null, metadata !"double", null, i32 0, i64 64, i64 64, i64 0, i32 0, i32 4} ; [ DW_TAG_base_type ]
!971 = metadata !{i32 786478, i32 0, metadata !883, metadata !"ap_int_base", metadata !"ap_int_base", metadata !"", metadata !865, i32 1455, metadata !972, i1 false, i1 false, i32 0, i32 0, null, i32 256, i1 false, null, null, i32 0, metadata !86, i32 1455} ; [ DW_TAG_subprogram ]
!972 = metadata !{i32 786453, i32 0, metadata !"", i32 0, i32 0, i64 0, i64 0, i64 0, i32 0, null, metadata !973, i32 0, i32 0} ; [ DW_TAG_subroutine_type ]
!973 = metadata !{null, metadata !901, metadata !150}
!974 = metadata !{i32 786478, i32 0, metadata !883, metadata !"ap_int_base", metadata !"ap_int_base", metadata !"", metadata !865, i32 1462, metadata !975, i1 false, i1 false, i32 0, i32 0, null, i32 256, i1 false, null, null, i32 0, metadata !86, i32 1462} ; [ DW_TAG_subprogram ]
!975 = metadata !{i32 786453, i32 0, metadata !"", i32 0, i32 0, i64 0, i64 0, i64 0, i32 0, null, metadata !976, i32 0, i32 0} ; [ DW_TAG_subroutine_type ]
!976 = metadata !{null, metadata !901, metadata !150, metadata !922}
!977 = metadata !{i32 786478, i32 0, metadata !883, metadata !"read", metadata !"read", metadata !"_ZNV11ap_int_baseILi16ELb0ELb1EE4readEv", metadata !865, i32 1483, metadata !978, i1 false, i1 false, i32 0, i32 0, null, i32 256, i1 false, null, null, i32 0, metadata !86, i32 1483} ; [ DW_TAG_subprogram ]
!978 = metadata !{i32 786453, i32 0, metadata !"", i32 0, i32 0, i64 0, i64 0, i64 0, i32 0, null, metadata !979, i32 0, i32 0} ; [ DW_TAG_subroutine_type ]
!979 = metadata !{metadata !883, metadata !980}
!980 = metadata !{i32 786447, i32 0, metadata !"", i32 0, i32 0, i64 32, i64 32, i64 0, i32 64, metadata !915} ; [ DW_TAG_pointer_type ]
!981 = metadata !{i32 786478, i32 0, metadata !883, metadata !"write", metadata !"write", metadata !"_ZNV11ap_int_baseILi16ELb0ELb1EE5writeERKS0_", metadata !865, i32 1489, metadata !982, i1 false, i1 false, i32 0, i32 0, null, i32 256, i1 false, null, null, i32 0, metadata !86, i32 1489} ; [ DW_TAG_subprogram ]
!982 = metadata !{i32 786453, i32 0, metadata !"", i32 0, i32 0, i64 0, i64 0, i64 0, i32 0, null, metadata !983, i32 0, i32 0} ; [ DW_TAG_subroutine_type ]
!983 = metadata !{null, metadata !980, metadata !905}
!984 = metadata !{i32 786478, i32 0, metadata !883, metadata !"operator=", metadata !"operator=", metadata !"_ZNV11ap_int_baseILi16ELb0ELb1EEaSERVKS0_", metadata !865, i32 1501, metadata !985, i1 false, i1 false, i32 0, i32 0, null, i32 256, i1 false, null, null, i32 0, metadata !86, i32 1501} ; [ DW_TAG_subprogram ]
!985 = metadata !{i32 786453, i32 0, metadata !"", i32 0, i32 0, i64 0, i64 0, i64 0, i32 0, null, metadata !986, i32 0, i32 0} ; [ DW_TAG_subroutine_type ]
!986 = metadata !{null, metadata !980, metadata !913}
!987 = metadata !{i32 786478, i32 0, metadata !883, metadata !"operator=", metadata !"operator=", metadata !"_ZNV11ap_int_baseILi16ELb0ELb1EEaSERKS0_", metadata !865, i32 1510, metadata !982, i1 false, i1 false, i32 0, i32 0, null, i32 256, i1 false, null, null, i32 0, metadata !86, i32 1510} ; [ DW_TAG_subprogram ]
!988 = metadata !{i32 786478, i32 0, metadata !883, metadata !"operator=", metadata !"operator=", metadata !"_ZN11ap_int_baseILi16ELb0ELb1EEaSERVKS0_", metadata !865, i32 1533, metadata !989, i1 false, i1 false, i32 0, i32 0, null, i32 256, i1 false, null, null, i32 0, metadata !86, i32 1533} ; [ DW_TAG_subprogram ]
!989 = metadata !{i32 786453, i32 0, metadata !"", i32 0, i32 0, i64 0, i64 0, i64 0, i32 0, null, metadata !990, i32 0, i32 0} ; [ DW_TAG_subroutine_type ]
!990 = metadata !{metadata !991, metadata !901, metadata !913}
!991 = metadata !{i32 786448, null, null, null, i32 0, i64 0, i64 0, i64 0, i32 0, metadata !883} ; [ DW_TAG_reference_type ]
!992 = metadata !{i32 786478, i32 0, metadata !883, metadata !"operator=", metadata !"operator=", metadata !"_ZN11ap_int_baseILi16ELb0ELb1EEaSERKS0_", metadata !865, i32 1538, metadata !993, i1 false, i1 false, i32 0, i32 0, null, i32 256, i1 false, null, null, i32 0, metadata !86, i32 1538} ; [ DW_TAG_subprogram ]
!993 = metadata !{i32 786453, i32 0, metadata !"", i32 0, i32 0, i64 0, i64 0, i64 0, i32 0, null, metadata !994, i32 0, i32 0} ; [ DW_TAG_subroutine_type ]
!994 = metadata !{metadata !991, metadata !901, metadata !905}
!995 = metadata !{i32 786478, i32 0, metadata !883, metadata !"operator=", metadata !"operator=", metadata !"_ZN11ap_int_baseILi16ELb0ELb1EEaSEPKc", metadata !865, i32 1542, metadata !996, i1 false, i1 false, i32 0, i32 0, null, i32 256, i1 false, null, null, i32 0, metadata !86, i32 1542} ; [ DW_TAG_subprogram ]
!996 = metadata !{i32 786453, i32 0, metadata !"", i32 0, i32 0, i64 0, i64 0, i64 0, i32 0, null, metadata !997, i32 0, i32 0} ; [ DW_TAG_subroutine_type ]
!997 = metadata !{metadata !991, metadata !901, metadata !150}
!998 = metadata !{i32 786478, i32 0, metadata !883, metadata !"set", metadata !"set", metadata !"_ZN11ap_int_baseILi16ELb0ELb1EE3setEPKca", metadata !865, i32 1550, metadata !999, i1 false, i1 false, i32 0, i32 0, null, i32 256, i1 false, null, null, i32 0, metadata !86, i32 1550} ; [ DW_TAG_subprogram ]
!999 = metadata !{i32 786453, i32 0, metadata !"", i32 0, i32 0, i64 0, i64 0, i64 0, i32 0, null, metadata !1000, i32 0, i32 0} ; [ DW_TAG_subroutine_type ]
!1000 = metadata !{metadata !991, metadata !901, metadata !150, metadata !922}
!1001 = metadata !{i32 786478, i32 0, metadata !883, metadata !"operator=", metadata !"operator=", metadata !"_ZN11ap_int_baseILi16ELb0ELb1EEaSEa", metadata !865, i32 1564, metadata !1002, i1 false, i1 false, i32 0, i32 0, null, i32 256, i1 false, null, null, i32 0, metadata !86, i32 1564} ; [ DW_TAG_subprogram ]
!1002 = metadata !{i32 786453, i32 0, metadata !"", i32 0, i32 0, i64 0, i64 0, i64 0, i32 0, null, metadata !1003, i32 0, i32 0} ; [ DW_TAG_subroutine_type ]
!1003 = metadata !{metadata !991, metadata !901, metadata !922}
!1004 = metadata !{i32 786478, i32 0, metadata !883, metadata !"operator=", metadata !"operator=", metadata !"_ZN11ap_int_baseILi16ELb0ELb1EEaSEh", metadata !865, i32 1565, metadata !1005, i1 false, i1 false, i32 0, i32 0, null, i32 256, i1 false, null, null, i32 0, metadata !86, i32 1565} ; [ DW_TAG_subprogram ]
!1005 = metadata !{i32 786453, i32 0, metadata !"", i32 0, i32 0, i64 0, i64 0, i64 0, i32 0, null, metadata !1006, i32 0, i32 0} ; [ DW_TAG_subroutine_type ]
!1006 = metadata !{metadata !991, metadata !901, metadata !926}
!1007 = metadata !{i32 786478, i32 0, metadata !883, metadata !"operator=", metadata !"operator=", metadata !"_ZN11ap_int_baseILi16ELb0ELb1EEaSEs", metadata !865, i32 1566, metadata !1008, i1 false, i1 false, i32 0, i32 0, null, i32 256, i1 false, null, null, i32 0, metadata !86, i32 1566} ; [ DW_TAG_subprogram ]
!1008 = metadata !{i32 786453, i32 0, metadata !"", i32 0, i32 0, i64 0, i64 0, i64 0, i32 0, null, metadata !1009, i32 0, i32 0} ; [ DW_TAG_subroutine_type ]
!1009 = metadata !{metadata !991, metadata !901, metadata !930}
!1010 = metadata !{i32 786478, i32 0, metadata !883, metadata !"operator=", metadata !"operator=", metadata !"_ZN11ap_int_baseILi16ELb0ELb1EEaSEt", metadata !865, i32 1567, metadata !1011, i1 false, i1 false, i32 0, i32 0, null, i32 256, i1 false, null, null, i32 0, metadata !86, i32 1567} ; [ DW_TAG_subprogram ]
!1011 = metadata !{i32 786453, i32 0, metadata !"", i32 0, i32 0, i64 0, i64 0, i64 0, i32 0, null, metadata !1012, i32 0, i32 0} ; [ DW_TAG_subroutine_type ]
!1012 = metadata !{metadata !991, metadata !901, metadata !934}
!1013 = metadata !{i32 786478, i32 0, metadata !883, metadata !"operator=", metadata !"operator=", metadata !"_ZN11ap_int_baseILi16ELb0ELb1EEaSEi", metadata !865, i32 1568, metadata !1014, i1 false, i1 false, i32 0, i32 0, null, i32 256, i1 false, null, null, i32 0, metadata !86, i32 1568} ; [ DW_TAG_subprogram ]
!1014 = metadata !{i32 786453, i32 0, metadata !"", i32 0, i32 0, i64 0, i64 0, i64 0, i32 0, null, metadata !1015, i32 0, i32 0} ; [ DW_TAG_subroutine_type ]
!1015 = metadata !{metadata !991, metadata !901, metadata !56}
!1016 = metadata !{i32 786478, i32 0, metadata !883, metadata !"operator=", metadata !"operator=", metadata !"_ZN11ap_int_baseILi16ELb0ELb1EEaSEj", metadata !865, i32 1569, metadata !1017, i1 false, i1 false, i32 0, i32 0, null, i32 256, i1 false, null, null, i32 0, metadata !86, i32 1569} ; [ DW_TAG_subprogram ]
!1017 = metadata !{i32 786453, i32 0, metadata !"", i32 0, i32 0, i64 0, i64 0, i64 0, i32 0, null, metadata !1018, i32 0, i32 0} ; [ DW_TAG_subroutine_type ]
!1018 = metadata !{metadata !991, metadata !901, metadata !138}
!1019 = metadata !{i32 786478, i32 0, metadata !883, metadata !"operator=", metadata !"operator=", metadata !"_ZN11ap_int_baseILi16ELb0ELb1EEaSEx", metadata !865, i32 1570, metadata !1020, i1 false, i1 false, i32 0, i32 0, null, i32 256, i1 false, null, null, i32 0, metadata !86, i32 1570} ; [ DW_TAG_subprogram ]
!1020 = metadata !{i32 786453, i32 0, metadata !"", i32 0, i32 0, i64 0, i64 0, i64 0, i32 0, null, metadata !1021, i32 0, i32 0} ; [ DW_TAG_subroutine_type ]
!1021 = metadata !{metadata !991, metadata !901, metadata !951}
!1022 = metadata !{i32 786478, i32 0, metadata !883, metadata !"operator=", metadata !"operator=", metadata !"_ZN11ap_int_baseILi16ELb0ELb1EEaSEy", metadata !865, i32 1571, metadata !1023, i1 false, i1 false, i32 0, i32 0, null, i32 256, i1 false, null, null, i32 0, metadata !86, i32 1571} ; [ DW_TAG_subprogram ]
!1023 = metadata !{i32 786453, i32 0, metadata !"", i32 0, i32 0, i64 0, i64 0, i64 0, i32 0, null, metadata !1024, i32 0, i32 0} ; [ DW_TAG_subroutine_type ]
!1024 = metadata !{metadata !991, metadata !901, metadata !956}
!1025 = metadata !{i32 786478, i32 0, metadata !883, metadata !"operator unsigned short", metadata !"operator unsigned short", metadata !"_ZNK11ap_int_baseILi16ELb0ELb1EEcvtEv", metadata !865, i32 1609, metadata !1026, i1 false, i1 false, i32 0, i32 0, null, i32 256, i1 false, null, null, i32 0, metadata !86, i32 1609} ; [ DW_TAG_subprogram ]
!1026 = metadata !{i32 786453, i32 0, metadata !"", i32 0, i32 0, i64 0, i64 0, i64 0, i32 0, null, metadata !1027, i32 0, i32 0} ; [ DW_TAG_subroutine_type ]
!1027 = metadata !{metadata !1028, metadata !1033}
!1028 = metadata !{i32 786454, metadata !883, metadata !"RetType", metadata !865, i32 1357, i64 0, i64 0, i64 0, i32 0, metadata !1029} ; [ DW_TAG_typedef ]
!1029 = metadata !{i32 786454, metadata !1030, metadata !"Type", metadata !865, i32 1331, i64 0, i64 0, i64 0, i32 0, metadata !934} ; [ DW_TAG_typedef ]
!1030 = metadata !{i32 786434, null, metadata !"retval<2, false>", metadata !865, i32 1330, i64 8, i64 8, i32 0, i32 0, null, metadata !872, i32 0, null, metadata !1031} ; [ DW_TAG_class_type ]
!1031 = metadata !{metadata !1032, metadata !897}
!1032 = metadata !{i32 786480, null, metadata !"_AP_N", metadata !56, i64 2, null, i32 0, i32 0} ; [ DW_TAG_template_value_parameter ]
!1033 = metadata !{i32 786447, i32 0, metadata !"", i32 0, i32 0, i64 32, i64 32, i64 0, i32 64, metadata !906} ; [ DW_TAG_pointer_type ]
!1034 = metadata !{i32 786478, i32 0, metadata !883, metadata !"to_bool", metadata !"to_bool", metadata !"_ZNK11ap_int_baseILi16ELb0ELb1EE7to_boolEv", metadata !865, i32 1615, metadata !1035, i1 false, i1 false, i32 0, i32 0, null, i32 256, i1 false, null, null, i32 0, metadata !86, i32 1615} ; [ DW_TAG_subprogram ]
!1035 = metadata !{i32 786453, i32 0, metadata !"", i32 0, i32 0, i64 0, i64 0, i64 0, i32 0, null, metadata !1036, i32 0, i32 0} ; [ DW_TAG_subroutine_type ]
!1036 = metadata !{metadata !212, metadata !1033}
!1037 = metadata !{i32 786478, i32 0, metadata !883, metadata !"to_uchar", metadata !"to_uchar", metadata !"_ZNK11ap_int_baseILi16ELb0ELb1EE8to_ucharEv", metadata !865, i32 1616, metadata !1038, i1 false, i1 false, i32 0, i32 0, null, i32 256, i1 false, null, null, i32 0, metadata !86, i32 1616} ; [ DW_TAG_subprogram ]
!1038 = metadata !{i32 786453, i32 0, metadata !"", i32 0, i32 0, i64 0, i64 0, i64 0, i32 0, null, metadata !1039, i32 0, i32 0} ; [ DW_TAG_subroutine_type ]
!1039 = metadata !{metadata !926, metadata !1033}
!1040 = metadata !{i32 786478, i32 0, metadata !883, metadata !"to_char", metadata !"to_char", metadata !"_ZNK11ap_int_baseILi16ELb0ELb1EE7to_charEv", metadata !865, i32 1617, metadata !1041, i1 false, i1 false, i32 0, i32 0, null, i32 256, i1 false, null, null, i32 0, metadata !86, i32 1617} ; [ DW_TAG_subprogram ]
!1041 = metadata !{i32 786453, i32 0, metadata !"", i32 0, i32 0, i64 0, i64 0, i64 0, i32 0, null, metadata !1042, i32 0, i32 0} ; [ DW_TAG_subroutine_type ]
!1042 = metadata !{metadata !922, metadata !1033}
!1043 = metadata !{i32 786478, i32 0, metadata !883, metadata !"to_ushort", metadata !"to_ushort", metadata !"_ZNK11ap_int_baseILi16ELb0ELb1EE9to_ushortEv", metadata !865, i32 1618, metadata !1044, i1 false, i1 false, i32 0, i32 0, null, i32 256, i1 false, null, null, i32 0, metadata !86, i32 1618} ; [ DW_TAG_subprogram ]
!1044 = metadata !{i32 786453, i32 0, metadata !"", i32 0, i32 0, i64 0, i64 0, i64 0, i32 0, null, metadata !1045, i32 0, i32 0} ; [ DW_TAG_subroutine_type ]
!1045 = metadata !{metadata !934, metadata !1033}
!1046 = metadata !{i32 786478, i32 0, metadata !883, metadata !"to_short", metadata !"to_short", metadata !"_ZNK11ap_int_baseILi16ELb0ELb1EE8to_shortEv", metadata !865, i32 1619, metadata !1047, i1 false, i1 false, i32 0, i32 0, null, i32 256, i1 false, null, null, i32 0, metadata !86, i32 1619} ; [ DW_TAG_subprogram ]
!1047 = metadata !{i32 786453, i32 0, metadata !"", i32 0, i32 0, i64 0, i64 0, i64 0, i32 0, null, metadata !1048, i32 0, i32 0} ; [ DW_TAG_subroutine_type ]
!1048 = metadata !{metadata !930, metadata !1033}
!1049 = metadata !{i32 786478, i32 0, metadata !883, metadata !"to_int", metadata !"to_int", metadata !"_ZNK11ap_int_baseILi16ELb0ELb1EE6to_intEv", metadata !865, i32 1620, metadata !1050, i1 false, i1 false, i32 0, i32 0, null, i32 256, i1 false, null, null, i32 0, metadata !86, i32 1620} ; [ DW_TAG_subprogram ]
!1050 = metadata !{i32 786453, i32 0, metadata !"", i32 0, i32 0, i64 0, i64 0, i64 0, i32 0, null, metadata !1051, i32 0, i32 0} ; [ DW_TAG_subroutine_type ]
!1051 = metadata !{metadata !56, metadata !1033}
!1052 = metadata !{i32 786478, i32 0, metadata !883, metadata !"to_uint", metadata !"to_uint", metadata !"_ZNK11ap_int_baseILi16ELb0ELb1EE7to_uintEv", metadata !865, i32 1621, metadata !1053, i1 false, i1 false, i32 0, i32 0, null, i32 256, i1 false, null, null, i32 0, metadata !86, i32 1621} ; [ DW_TAG_subprogram ]
!1053 = metadata !{i32 786453, i32 0, metadata !"", i32 0, i32 0, i64 0, i64 0, i64 0, i32 0, null, metadata !1054, i32 0, i32 0} ; [ DW_TAG_subroutine_type ]
!1054 = metadata !{metadata !138, metadata !1033}
!1055 = metadata !{i32 786478, i32 0, metadata !883, metadata !"to_long", metadata !"to_long", metadata !"_ZNK11ap_int_baseILi16ELb0ELb1EE7to_longEv", metadata !865, i32 1622, metadata !1056, i1 false, i1 false, i32 0, i32 0, null, i32 256, i1 false, null, null, i32 0, metadata !86, i32 1622} ; [ DW_TAG_subprogram ]
!1056 = metadata !{i32 786453, i32 0, metadata !"", i32 0, i32 0, i64 0, i64 0, i64 0, i32 0, null, metadata !1057, i32 0, i32 0} ; [ DW_TAG_subroutine_type ]
!1057 = metadata !{metadata !100, metadata !1033}
!1058 = metadata !{i32 786478, i32 0, metadata !883, metadata !"to_ulong", metadata !"to_ulong", metadata !"_ZNK11ap_int_baseILi16ELb0ELb1EE8to_ulongEv", metadata !865, i32 1623, metadata !1059, i1 false, i1 false, i32 0, i32 0, null, i32 256, i1 false, null, null, i32 0, metadata !86, i32 1623} ; [ DW_TAG_subprogram ]
!1059 = metadata !{i32 786453, i32 0, metadata !"", i32 0, i32 0, i64 0, i64 0, i64 0, i32 0, null, metadata !1060, i32 0, i32 0} ; [ DW_TAG_subroutine_type ]
!1060 = metadata !{metadata !947, metadata !1033}
!1061 = metadata !{i32 786478, i32 0, metadata !883, metadata !"to_int64", metadata !"to_int64", metadata !"_ZNK11ap_int_baseILi16ELb0ELb1EE8to_int64Ev", metadata !865, i32 1624, metadata !1062, i1 false, i1 false, i32 0, i32 0, null, i32 256, i1 false, null, null, i32 0, metadata !86, i32 1624} ; [ DW_TAG_subprogram ]
!1062 = metadata !{i32 786453, i32 0, metadata !"", i32 0, i32 0, i64 0, i64 0, i64 0, i32 0, null, metadata !1063, i32 0, i32 0} ; [ DW_TAG_subroutine_type ]
!1063 = metadata !{metadata !951, metadata !1033}
!1064 = metadata !{i32 786478, i32 0, metadata !883, metadata !"to_uint64", metadata !"to_uint64", metadata !"_ZNK11ap_int_baseILi16ELb0ELb1EE9to_uint64Ev", metadata !865, i32 1625, metadata !1065, i1 false, i1 false, i32 0, i32 0, null, i32 256, i1 false, null, null, i32 0, metadata !86, i32 1625} ; [ DW_TAG_subprogram ]
!1065 = metadata !{i32 786453, i32 0, metadata !"", i32 0, i32 0, i64 0, i64 0, i64 0, i32 0, null, metadata !1066, i32 0, i32 0} ; [ DW_TAG_subroutine_type ]
!1066 = metadata !{metadata !956, metadata !1033}
!1067 = metadata !{i32 786478, i32 0, metadata !883, metadata !"to_double", metadata !"to_double", metadata !"_ZNK11ap_int_baseILi16ELb0ELb1EE9to_doubleEv", metadata !865, i32 1626, metadata !1068, i1 false, i1 false, i32 0, i32 0, null, i32 256, i1 false, null, null, i32 0, metadata !86, i32 1626} ; [ DW_TAG_subprogram ]
!1068 = metadata !{i32 786453, i32 0, metadata !"", i32 0, i32 0, i64 0, i64 0, i64 0, i32 0, null, metadata !1069, i32 0, i32 0} ; [ DW_TAG_subroutine_type ]
!1069 = metadata !{metadata !970, metadata !1033}
!1070 = metadata !{i32 786478, i32 0, metadata !883, metadata !"length", metadata !"length", metadata !"_ZNK11ap_int_baseILi16ELb0ELb1EE6lengthEv", metadata !865, i32 1640, metadata !1050, i1 false, i1 false, i32 0, i32 0, null, i32 256, i1 false, null, null, i32 0, metadata !86, i32 1640} ; [ DW_TAG_subprogram ]
!1071 = metadata !{i32 786478, i32 0, metadata !883, metadata !"length", metadata !"length", metadata !"_ZNVK11ap_int_baseILi16ELb0ELb1EE6lengthEv", metadata !865, i32 1641, metadata !1072, i1 false, i1 false, i32 0, i32 0, null, i32 256, i1 false, null, null, i32 0, metadata !86, i32 1641} ; [ DW_TAG_subprogram ]
!1072 = metadata !{i32 786453, i32 0, metadata !"", i32 0, i32 0, i64 0, i64 0, i64 0, i32 0, null, metadata !1073, i32 0, i32 0} ; [ DW_TAG_subroutine_type ]
!1073 = metadata !{metadata !56, metadata !1074}
!1074 = metadata !{i32 786447, i32 0, metadata !"", i32 0, i32 0, i64 32, i64 32, i64 0, i32 64, metadata !914} ; [ DW_TAG_pointer_type ]
!1075 = metadata !{i32 786478, i32 0, metadata !883, metadata !"reverse", metadata !"reverse", metadata !"_ZN11ap_int_baseILi16ELb0ELb1EE7reverseEv", metadata !865, i32 1646, metadata !1076, i1 false, i1 false, i32 0, i32 0, null, i32 256, i1 false, null, null, i32 0, metadata !86, i32 1646} ; [ DW_TAG_subprogram ]
!1076 = metadata !{i32 786453, i32 0, metadata !"", i32 0, i32 0, i64 0, i64 0, i64 0, i32 0, null, metadata !1077, i32 0, i32 0} ; [ DW_TAG_subroutine_type ]
!1077 = metadata !{metadata !991, metadata !901}
!1078 = metadata !{i32 786478, i32 0, metadata !883, metadata !"iszero", metadata !"iszero", metadata !"_ZNK11ap_int_baseILi16ELb0ELb1EE6iszeroEv", metadata !865, i32 1652, metadata !1035, i1 false, i1 false, i32 0, i32 0, null, i32 256, i1 false, null, null, i32 0, metadata !86, i32 1652} ; [ DW_TAG_subprogram ]
!1079 = metadata !{i32 786478, i32 0, metadata !883, metadata !"is_zero", metadata !"is_zero", metadata !"_ZNK11ap_int_baseILi16ELb0ELb1EE7is_zeroEv", metadata !865, i32 1657, metadata !1035, i1 false, i1 false, i32 0, i32 0, null, i32 256, i1 false, null, null, i32 0, metadata !86, i32 1657} ; [ DW_TAG_subprogram ]
!1080 = metadata !{i32 786478, i32 0, metadata !883, metadata !"sign", metadata !"sign", metadata !"_ZNK11ap_int_baseILi16ELb0ELb1EE4signEv", metadata !865, i32 1662, metadata !1035, i1 false, i1 false, i32 0, i32 0, null, i32 256, i1 false, null, null, i32 0, metadata !86, i32 1662} ; [ DW_TAG_subprogram ]
!1081 = metadata !{i32 786478, i32 0, metadata !883, metadata !"clear", metadata !"clear", metadata !"_ZN11ap_int_baseILi16ELb0ELb1EE5clearEi", metadata !865, i32 1670, metadata !936, i1 false, i1 false, i32 0, i32 0, null, i32 256, i1 false, null, null, i32 0, metadata !86, i32 1670} ; [ DW_TAG_subprogram ]
!1082 = metadata !{i32 786478, i32 0, metadata !883, metadata !"invert", metadata !"invert", metadata !"_ZN11ap_int_baseILi16ELb0ELb1EE6invertEi", metadata !865, i32 1676, metadata !936, i1 false, i1 false, i32 0, i32 0, null, i32 256, i1 false, null, null, i32 0, metadata !86, i32 1676} ; [ DW_TAG_subprogram ]
!1083 = metadata !{i32 786478, i32 0, metadata !883, metadata !"test", metadata !"test", metadata !"_ZNK11ap_int_baseILi16ELb0ELb1EE4testEi", metadata !865, i32 1684, metadata !1084, i1 false, i1 false, i32 0, i32 0, null, i32 256, i1 false, null, null, i32 0, metadata !86, i32 1684} ; [ DW_TAG_subprogram ]
!1084 = metadata !{i32 786453, i32 0, metadata !"", i32 0, i32 0, i64 0, i64 0, i64 0, i32 0, null, metadata !1085, i32 0, i32 0} ; [ DW_TAG_subroutine_type ]
!1085 = metadata !{metadata !212, metadata !1033, metadata !56}
!1086 = metadata !{i32 786478, i32 0, metadata !883, metadata !"set", metadata !"set", metadata !"_ZN11ap_int_baseILi16ELb0ELb1EE3setEi", metadata !865, i32 1690, metadata !936, i1 false, i1 false, i32 0, i32 0, null, i32 256, i1 false, null, null, i32 0, metadata !86, i32 1690} ; [ DW_TAG_subprogram ]
!1087 = metadata !{i32 786478, i32 0, metadata !883, metadata !"set", metadata !"set", metadata !"_ZN11ap_int_baseILi16ELb0ELb1EE3setEib", metadata !865, i32 1696, metadata !1088, i1 false, i1 false, i32 0, i32 0, null, i32 256, i1 false, null, null, i32 0, metadata !86, i32 1696} ; [ DW_TAG_subprogram ]
!1088 = metadata !{i32 786453, i32 0, metadata !"", i32 0, i32 0, i64 0, i64 0, i64 0, i32 0, null, metadata !1089, i32 0, i32 0} ; [ DW_TAG_subroutine_type ]
!1089 = metadata !{null, metadata !901, metadata !56, metadata !212}
!1090 = metadata !{i32 786478, i32 0, metadata !883, metadata !"lrotate", metadata !"lrotate", metadata !"_ZN11ap_int_baseILi16ELb0ELb1EE7lrotateEi", metadata !865, i32 1703, metadata !936, i1 false, i1 false, i32 0, i32 0, null, i32 256, i1 false, null, null, i32 0, metadata !86, i32 1703} ; [ DW_TAG_subprogram ]
!1091 = metadata !{i32 786478, i32 0, metadata !883, metadata !"rrotate", metadata !"rrotate", metadata !"_ZN11ap_int_baseILi16ELb0ELb1EE7rrotateEi", metadata !865, i32 1712, metadata !936, i1 false, i1 false, i32 0, i32 0, null, i32 256, i1 false, null, null, i32 0, metadata !86, i32 1712} ; [ DW_TAG_subprogram ]
!1092 = metadata !{i32 786478, i32 0, metadata !883, metadata !"set_bit", metadata !"set_bit", metadata !"_ZN11ap_int_baseILi16ELb0ELb1EE7set_bitEib", metadata !865, i32 1720, metadata !1088, i1 false, i1 false, i32 0, i32 0, null, i32 256, i1 false, null, null, i32 0, metadata !86, i32 1720} ; [ DW_TAG_subprogram ]
!1093 = metadata !{i32 786478, i32 0, metadata !883, metadata !"get_bit", metadata !"get_bit", metadata !"_ZNK11ap_int_baseILi16ELb0ELb1EE7get_bitEi", metadata !865, i32 1725, metadata !1084, i1 false, i1 false, i32 0, i32 0, null, i32 256, i1 false, null, null, i32 0, metadata !86, i32 1725} ; [ DW_TAG_subprogram ]
!1094 = metadata !{i32 786478, i32 0, metadata !883, metadata !"b_not", metadata !"b_not", metadata !"_ZN11ap_int_baseILi16ELb0ELb1EE5b_notEv", metadata !865, i32 1730, metadata !899, i1 false, i1 false, i32 0, i32 0, null, i32 256, i1 false, null, null, i32 0, metadata !86, i32 1730} ; [ DW_TAG_subprogram ]
!1095 = metadata !{i32 786478, i32 0, metadata !883, metadata !"countLeadingZeros", metadata !"countLeadingZeros", metadata !"_ZN11ap_int_baseILi16ELb0ELb1EE17countLeadingZerosEv", metadata !865, i32 1737, metadata !1096, i1 false, i1 false, i32 0, i32 0, null, i32 256, i1 false, null, null, i32 0, metadata !86, i32 1737} ; [ DW_TAG_subprogram ]
!1096 = metadata !{i32 786453, i32 0, metadata !"", i32 0, i32 0, i64 0, i64 0, i64 0, i32 0, null, metadata !1097, i32 0, i32 0} ; [ DW_TAG_subroutine_type ]
!1097 = metadata !{metadata !56, metadata !901}
!1098 = metadata !{i32 786478, i32 0, metadata !883, metadata !"operator++", metadata !"operator++", metadata !"_ZN11ap_int_baseILi16ELb0ELb1EEppEv", metadata !865, i32 1794, metadata !1076, i1 false, i1 false, i32 0, i32 0, null, i32 256, i1 false, null, null, i32 0, metadata !86, i32 1794} ; [ DW_TAG_subprogram ]
!1099 = metadata !{i32 786478, i32 0, metadata !883, metadata !"operator--", metadata !"operator--", metadata !"_ZN11ap_int_baseILi16ELb0ELb1EEmmEv", metadata !865, i32 1798, metadata !1076, i1 false, i1 false, i32 0, i32 0, null, i32 256, i1 false, null, null, i32 0, metadata !86, i32 1798} ; [ DW_TAG_subprogram ]
!1100 = metadata !{i32 786478, i32 0, metadata !883, metadata !"operator++", metadata !"operator++", metadata !"_ZN11ap_int_baseILi16ELb0ELb1EEppEi", metadata !865, i32 1806, metadata !1101, i1 false, i1 false, i32 0, i32 0, null, i32 256, i1 false, null, null, i32 0, metadata !86, i32 1806} ; [ DW_TAG_subprogram ]
!1101 = metadata !{i32 786453, i32 0, metadata !"", i32 0, i32 0, i64 0, i64 0, i64 0, i32 0, null, metadata !1102, i32 0, i32 0} ; [ DW_TAG_subroutine_type ]
!1102 = metadata !{metadata !906, metadata !901, metadata !56}
!1103 = metadata !{i32 786478, i32 0, metadata !883, metadata !"operator--", metadata !"operator--", metadata !"_ZN11ap_int_baseILi16ELb0ELb1EEmmEi", metadata !865, i32 1811, metadata !1101, i1 false, i1 false, i32 0, i32 0, null, i32 256, i1 false, null, null, i32 0, metadata !86, i32 1811} ; [ DW_TAG_subprogram ]
!1104 = metadata !{i32 786478, i32 0, metadata !883, metadata !"operator+", metadata !"operator+", metadata !"_ZNK11ap_int_baseILi16ELb0ELb1EEpsEv", metadata !865, i32 1820, metadata !1105, i1 false, i1 false, i32 0, i32 0, null, i32 256, i1 false, null, null, i32 0, metadata !86, i32 1820} ; [ DW_TAG_subprogram ]
!1105 = metadata !{i32 786453, i32 0, metadata !"", i32 0, i32 0, i64 0, i64 0, i64 0, i32 0, null, metadata !1106, i32 0, i32 0} ; [ DW_TAG_subroutine_type ]
!1106 = metadata !{metadata !883, metadata !1033}
!1107 = metadata !{i32 786478, i32 0, metadata !883, metadata !"operator!", metadata !"operator!", metadata !"_ZNK11ap_int_baseILi16ELb0ELb1EEntEv", metadata !865, i32 1826, metadata !1035, i1 false, i1 false, i32 0, i32 0, null, i32 256, i1 false, null, null, i32 0, metadata !86, i32 1826} ; [ DW_TAG_subprogram ]
!1108 = metadata !{i32 786478, i32 0, metadata !883, metadata !"operator-", metadata !"operator-", metadata !"_ZNK11ap_int_baseILi16ELb0ELb1EEngEv", metadata !865, i32 1831, metadata !1109, i1 false, i1 false, i32 0, i32 0, null, i32 256, i1 false, null, null, i32 0, metadata !86, i32 1831} ; [ DW_TAG_subprogram ]
!1109 = metadata !{i32 786453, i32 0, metadata !"", i32 0, i32 0, i64 0, i64 0, i64 0, i32 0, null, metadata !1110, i32 0, i32 0} ; [ DW_TAG_subroutine_type ]
!1110 = metadata !{metadata !1111, metadata !1033}
!1111 = metadata !{i32 786434, null, metadata !"ap_int_base<17, true, true>", metadata !865, i32 1352, i64 32, i64 32, i32 0, i32 0, null, metadata !1112, i32 0, null, metadata !1391} ; [ DW_TAG_class_type ]
!1112 = metadata !{metadata !1113, metadata !1125, metadata !1129, metadata !1132, metadata !1135, metadata !1138, metadata !1141, metadata !1144, metadata !1147, metadata !1150, metadata !1153, metadata !1156, metadata !1159, metadata !1162, metadata !1165, metadata !1168, metadata !1171, metadata !1174, metadata !1177, metadata !1182, metadata !1187, metadata !1192, metadata !1193, metadata !1197, metadata !1200, metadata !1203, metadata !1206, metadata !1209, metadata !1212, metadata !1215, metadata !1218, metadata !1221, metadata !1224, metadata !1227, metadata !1230, metadata !1239, metadata !1242, metadata !1245, metadata !1248, metadata !1251, metadata !1254, metadata !1257, metadata !1260, metadata !1263, metadata !1266, metadata !1269, metadata !1272, metadata !1275, metadata !1276, metadata !1280, metadata !1283, metadata !1284, metadata !1285, metadata !1286, metadata !1287, metadata !1288, metadata !1291, metadata !1292, metadata !1295, metadata !1296, metadata !1297, metadata !1298, metadata !1299, metadata !1300, metadata !1303, metadata !1304, metadata !1305, metadata !1308, metadata !1309, metadata !1312, metadata !1313, metadata !1317, metadata !1321, metadata !1322, metadata !1325, metadata !1326, metadata !1365, metadata !1366, metadata !1367, metadata !1368, metadata !1371, metadata !1372, metadata !1373, metadata !1374, metadata !1375, metadata !1376, metadata !1377, metadata !1378, metadata !1379, metadata !1380, metadata !1381, metadata !1382, metadata !1385, metadata !1388}
!1113 = metadata !{i32 786460, metadata !1111, null, metadata !865, i32 0, i64 0, i64 0, i64 0, i32 0, metadata !1114} ; [ DW_TAG_inheritance ]
!1114 = metadata !{i32 786434, null, metadata !"ssdm_int<17 + 1024 * 0, true>", metadata !887, i32 19, i64 32, i64 32, i32 0, i32 0, null, metadata !1115, i32 0, null, metadata !1122} ; [ DW_TAG_class_type ]
!1115 = metadata !{metadata !1116, metadata !1118}
!1116 = metadata !{i32 786445, metadata !1114, metadata !"V", metadata !887, i32 19, i64 17, i64 32, i64 0, i32 0, metadata !1117} ; [ DW_TAG_member ]
!1117 = metadata !{i32 786468, null, metadata !"int17", null, i32 0, i64 17, i64 32, i64 0, i32 0, i32 5} ; [ DW_TAG_base_type ]
!1118 = metadata !{i32 786478, i32 0, metadata !1114, metadata !"ssdm_int", metadata !"ssdm_int", metadata !"", metadata !887, i32 19, metadata !1119, i1 false, i1 false, i32 0, i32 0, null, i32 256, i1 false, null, null, i32 0, metadata !86, i32 19} ; [ DW_TAG_subprogram ]
!1119 = metadata !{i32 786453, i32 0, metadata !"", i32 0, i32 0, i64 0, i64 0, i64 0, i32 0, null, metadata !1120, i32 0, i32 0} ; [ DW_TAG_subroutine_type ]
!1120 = metadata !{null, metadata !1121}
!1121 = metadata !{i32 786447, i32 0, metadata !"", i32 0, i32 0, i64 32, i64 32, i64 0, i32 64, metadata !1114} ; [ DW_TAG_pointer_type ]
!1122 = metadata !{metadata !1123, metadata !1124}
!1123 = metadata !{i32 786480, null, metadata !"_AP_N", metadata !56, i64 17, null, i32 0, i32 0} ; [ DW_TAG_template_value_parameter ]
!1124 = metadata !{i32 786480, null, metadata !"_AP_S", metadata !212, i64 1, null, i32 0, i32 0} ; [ DW_TAG_template_value_parameter ]
!1125 = metadata !{i32 786478, i32 0, metadata !1111, metadata !"ap_int_base", metadata !"ap_int_base", metadata !"", metadata !865, i32 1393, metadata !1126, i1 false, i1 false, i32 0, i32 0, null, i32 256, i1 false, null, null, i32 0, metadata !86, i32 1393} ; [ DW_TAG_subprogram ]
!1126 = metadata !{i32 786453, i32 0, metadata !"", i32 0, i32 0, i64 0, i64 0, i64 0, i32 0, null, metadata !1127, i32 0, i32 0} ; [ DW_TAG_subroutine_type ]
!1127 = metadata !{null, metadata !1128}
!1128 = metadata !{i32 786447, i32 0, metadata !"", i32 0, i32 0, i64 32, i64 32, i64 0, i32 64, metadata !1111} ; [ DW_TAG_pointer_type ]
!1129 = metadata !{i32 786478, i32 0, metadata !1111, metadata !"ap_int_base", metadata !"ap_int_base", metadata !"", metadata !865, i32 1415, metadata !1130, i1 false, i1 false, i32 0, i32 0, null, i32 384, i1 false, null, null, i32 0, metadata !86, i32 1415} ; [ DW_TAG_subprogram ]
!1130 = metadata !{i32 786453, i32 0, metadata !"", i32 0, i32 0, i64 0, i64 0, i64 0, i32 0, null, metadata !1131, i32 0, i32 0} ; [ DW_TAG_subroutine_type ]
!1131 = metadata !{null, metadata !1128, metadata !212}
!1132 = metadata !{i32 786478, i32 0, metadata !1111, metadata !"ap_int_base", metadata !"ap_int_base", metadata !"", metadata !865, i32 1416, metadata !1133, i1 false, i1 false, i32 0, i32 0, null, i32 384, i1 false, null, null, i32 0, metadata !86, i32 1416} ; [ DW_TAG_subprogram ]
!1133 = metadata !{i32 786453, i32 0, metadata !"", i32 0, i32 0, i64 0, i64 0, i64 0, i32 0, null, metadata !1134, i32 0, i32 0} ; [ DW_TAG_subroutine_type ]
!1134 = metadata !{null, metadata !1128, metadata !922}
!1135 = metadata !{i32 786478, i32 0, metadata !1111, metadata !"ap_int_base", metadata !"ap_int_base", metadata !"", metadata !865, i32 1417, metadata !1136, i1 false, i1 false, i32 0, i32 0, null, i32 384, i1 false, null, null, i32 0, metadata !86, i32 1417} ; [ DW_TAG_subprogram ]
!1136 = metadata !{i32 786453, i32 0, metadata !"", i32 0, i32 0, i64 0, i64 0, i64 0, i32 0, null, metadata !1137, i32 0, i32 0} ; [ DW_TAG_subroutine_type ]
!1137 = metadata !{null, metadata !1128, metadata !926}
!1138 = metadata !{i32 786478, i32 0, metadata !1111, metadata !"ap_int_base", metadata !"ap_int_base", metadata !"", metadata !865, i32 1418, metadata !1139, i1 false, i1 false, i32 0, i32 0, null, i32 384, i1 false, null, null, i32 0, metadata !86, i32 1418} ; [ DW_TAG_subprogram ]
!1139 = metadata !{i32 786453, i32 0, metadata !"", i32 0, i32 0, i64 0, i64 0, i64 0, i32 0, null, metadata !1140, i32 0, i32 0} ; [ DW_TAG_subroutine_type ]
!1140 = metadata !{null, metadata !1128, metadata !930}
!1141 = metadata !{i32 786478, i32 0, metadata !1111, metadata !"ap_int_base", metadata !"ap_int_base", metadata !"", metadata !865, i32 1419, metadata !1142, i1 false, i1 false, i32 0, i32 0, null, i32 384, i1 false, null, null, i32 0, metadata !86, i32 1419} ; [ DW_TAG_subprogram ]
!1142 = metadata !{i32 786453, i32 0, metadata !"", i32 0, i32 0, i64 0, i64 0, i64 0, i32 0, null, metadata !1143, i32 0, i32 0} ; [ DW_TAG_subroutine_type ]
!1143 = metadata !{null, metadata !1128, metadata !934}
!1144 = metadata !{i32 786478, i32 0, metadata !1111, metadata !"ap_int_base", metadata !"ap_int_base", metadata !"", metadata !865, i32 1420, metadata !1145, i1 false, i1 false, i32 0, i32 0, null, i32 384, i1 false, null, null, i32 0, metadata !86, i32 1420} ; [ DW_TAG_subprogram ]
!1145 = metadata !{i32 786453, i32 0, metadata !"", i32 0, i32 0, i64 0, i64 0, i64 0, i32 0, null, metadata !1146, i32 0, i32 0} ; [ DW_TAG_subroutine_type ]
!1146 = metadata !{null, metadata !1128, metadata !56}
!1147 = metadata !{i32 786478, i32 0, metadata !1111, metadata !"ap_int_base", metadata !"ap_int_base", metadata !"", metadata !865, i32 1421, metadata !1148, i1 false, i1 false, i32 0, i32 0, null, i32 384, i1 false, null, null, i32 0, metadata !86, i32 1421} ; [ DW_TAG_subprogram ]
!1148 = metadata !{i32 786453, i32 0, metadata !"", i32 0, i32 0, i64 0, i64 0, i64 0, i32 0, null, metadata !1149, i32 0, i32 0} ; [ DW_TAG_subroutine_type ]
!1149 = metadata !{null, metadata !1128, metadata !138}
!1150 = metadata !{i32 786478, i32 0, metadata !1111, metadata !"ap_int_base", metadata !"ap_int_base", metadata !"", metadata !865, i32 1422, metadata !1151, i1 false, i1 false, i32 0, i32 0, null, i32 384, i1 false, null, null, i32 0, metadata !86, i32 1422} ; [ DW_TAG_subprogram ]
!1151 = metadata !{i32 786453, i32 0, metadata !"", i32 0, i32 0, i64 0, i64 0, i64 0, i32 0, null, metadata !1152, i32 0, i32 0} ; [ DW_TAG_subroutine_type ]
!1152 = metadata !{null, metadata !1128, metadata !100}
!1153 = metadata !{i32 786478, i32 0, metadata !1111, metadata !"ap_int_base", metadata !"ap_int_base", metadata !"", metadata !865, i32 1423, metadata !1154, i1 false, i1 false, i32 0, i32 0, null, i32 384, i1 false, null, null, i32 0, metadata !86, i32 1423} ; [ DW_TAG_subprogram ]
!1154 = metadata !{i32 786453, i32 0, metadata !"", i32 0, i32 0, i64 0, i64 0, i64 0, i32 0, null, metadata !1155, i32 0, i32 0} ; [ DW_TAG_subroutine_type ]
!1155 = metadata !{null, metadata !1128, metadata !947}
!1156 = metadata !{i32 786478, i32 0, metadata !1111, metadata !"ap_int_base", metadata !"ap_int_base", metadata !"", metadata !865, i32 1424, metadata !1157, i1 false, i1 false, i32 0, i32 0, null, i32 384, i1 false, null, null, i32 0, metadata !86, i32 1424} ; [ DW_TAG_subprogram ]
!1157 = metadata !{i32 786453, i32 0, metadata !"", i32 0, i32 0, i64 0, i64 0, i64 0, i32 0, null, metadata !1158, i32 0, i32 0} ; [ DW_TAG_subroutine_type ]
!1158 = metadata !{null, metadata !1128, metadata !951}
!1159 = metadata !{i32 786478, i32 0, metadata !1111, metadata !"ap_int_base", metadata !"ap_int_base", metadata !"", metadata !865, i32 1425, metadata !1160, i1 false, i1 false, i32 0, i32 0, null, i32 384, i1 false, null, null, i32 0, metadata !86, i32 1425} ; [ DW_TAG_subprogram ]
!1160 = metadata !{i32 786453, i32 0, metadata !"", i32 0, i32 0, i64 0, i64 0, i64 0, i32 0, null, metadata !1161, i32 0, i32 0} ; [ DW_TAG_subroutine_type ]
!1161 = metadata !{null, metadata !1128, metadata !956}
!1162 = metadata !{i32 786478, i32 0, metadata !1111, metadata !"ap_int_base", metadata !"ap_int_base", metadata !"", metadata !865, i32 1426, metadata !1163, i1 false, i1 false, i32 0, i32 0, null, i32 384, i1 false, null, null, i32 0, metadata !86, i32 1426} ; [ DW_TAG_subprogram ]
!1163 = metadata !{i32 786453, i32 0, metadata !"", i32 0, i32 0, i64 0, i64 0, i64 0, i32 0, null, metadata !1164, i32 0, i32 0} ; [ DW_TAG_subroutine_type ]
!1164 = metadata !{null, metadata !1128, metadata !961}
!1165 = metadata !{i32 786478, i32 0, metadata !1111, metadata !"ap_int_base", metadata !"ap_int_base", metadata !"", metadata !865, i32 1427, metadata !1166, i1 false, i1 false, i32 0, i32 0, null, i32 384, i1 false, null, null, i32 0, metadata !86, i32 1427} ; [ DW_TAG_subprogram ]
!1166 = metadata !{i32 786453, i32 0, metadata !"", i32 0, i32 0, i64 0, i64 0, i64 0, i32 0, null, metadata !1167, i32 0, i32 0} ; [ DW_TAG_subroutine_type ]
!1167 = metadata !{null, metadata !1128, metadata !966}
!1168 = metadata !{i32 786478, i32 0, metadata !1111, metadata !"ap_int_base", metadata !"ap_int_base", metadata !"", metadata !865, i32 1428, metadata !1169, i1 false, i1 false, i32 0, i32 0, null, i32 384, i1 false, null, null, i32 0, metadata !86, i32 1428} ; [ DW_TAG_subprogram ]
!1169 = metadata !{i32 786453, i32 0, metadata !"", i32 0, i32 0, i64 0, i64 0, i64 0, i32 0, null, metadata !1170, i32 0, i32 0} ; [ DW_TAG_subroutine_type ]
!1170 = metadata !{null, metadata !1128, metadata !970}
!1171 = metadata !{i32 786478, i32 0, metadata !1111, metadata !"ap_int_base", metadata !"ap_int_base", metadata !"", metadata !865, i32 1455, metadata !1172, i1 false, i1 false, i32 0, i32 0, null, i32 256, i1 false, null, null, i32 0, metadata !86, i32 1455} ; [ DW_TAG_subprogram ]
!1172 = metadata !{i32 786453, i32 0, metadata !"", i32 0, i32 0, i64 0, i64 0, i64 0, i32 0, null, metadata !1173, i32 0, i32 0} ; [ DW_TAG_subroutine_type ]
!1173 = metadata !{null, metadata !1128, metadata !150}
!1174 = metadata !{i32 786478, i32 0, metadata !1111, metadata !"ap_int_base", metadata !"ap_int_base", metadata !"", metadata !865, i32 1462, metadata !1175, i1 false, i1 false, i32 0, i32 0, null, i32 256, i1 false, null, null, i32 0, metadata !86, i32 1462} ; [ DW_TAG_subprogram ]
!1175 = metadata !{i32 786453, i32 0, metadata !"", i32 0, i32 0, i64 0, i64 0, i64 0, i32 0, null, metadata !1176, i32 0, i32 0} ; [ DW_TAG_subroutine_type ]
!1176 = metadata !{null, metadata !1128, metadata !150, metadata !922}
!1177 = metadata !{i32 786478, i32 0, metadata !1111, metadata !"read", metadata !"read", metadata !"_ZNV11ap_int_baseILi17ELb1ELb1EE4readEv", metadata !865, i32 1483, metadata !1178, i1 false, i1 false, i32 0, i32 0, null, i32 256, i1 false, null, null, i32 0, metadata !86, i32 1483} ; [ DW_TAG_subprogram ]
!1178 = metadata !{i32 786453, i32 0, metadata !"", i32 0, i32 0, i64 0, i64 0, i64 0, i32 0, null, metadata !1179, i32 0, i32 0} ; [ DW_TAG_subroutine_type ]
!1179 = metadata !{metadata !1111, metadata !1180}
!1180 = metadata !{i32 786447, i32 0, metadata !"", i32 0, i32 0, i64 32, i64 32, i64 0, i32 64, metadata !1181} ; [ DW_TAG_pointer_type ]
!1181 = metadata !{i32 786485, null, metadata !"", null, i32 0, i64 0, i64 0, i64 0, i32 0, metadata !1111} ; [ DW_TAG_volatile_type ]
!1182 = metadata !{i32 786478, i32 0, metadata !1111, metadata !"write", metadata !"write", metadata !"_ZNV11ap_int_baseILi17ELb1ELb1EE5writeERKS0_", metadata !865, i32 1489, metadata !1183, i1 false, i1 false, i32 0, i32 0, null, i32 256, i1 false, null, null, i32 0, metadata !86, i32 1489} ; [ DW_TAG_subprogram ]
!1183 = metadata !{i32 786453, i32 0, metadata !"", i32 0, i32 0, i64 0, i64 0, i64 0, i32 0, null, metadata !1184, i32 0, i32 0} ; [ DW_TAG_subroutine_type ]
!1184 = metadata !{null, metadata !1180, metadata !1185}
!1185 = metadata !{i32 786448, null, null, null, i32 0, i64 0, i64 0, i64 0, i32 0, metadata !1186} ; [ DW_TAG_reference_type ]
!1186 = metadata !{i32 786470, null, metadata !"", null, i32 0, i64 0, i64 0, i64 0, i32 0, metadata !1111} ; [ DW_TAG_const_type ]
!1187 = metadata !{i32 786478, i32 0, metadata !1111, metadata !"operator=", metadata !"operator=", metadata !"_ZNV11ap_int_baseILi17ELb1ELb1EEaSERVKS0_", metadata !865, i32 1501, metadata !1188, i1 false, i1 false, i32 0, i32 0, null, i32 256, i1 false, null, null, i32 0, metadata !86, i32 1501} ; [ DW_TAG_subprogram ]
!1188 = metadata !{i32 786453, i32 0, metadata !"", i32 0, i32 0, i64 0, i64 0, i64 0, i32 0, null, metadata !1189, i32 0, i32 0} ; [ DW_TAG_subroutine_type ]
!1189 = metadata !{null, metadata !1180, metadata !1190}
!1190 = metadata !{i32 786448, null, null, null, i32 0, i64 0, i64 0, i64 0, i32 0, metadata !1191} ; [ DW_TAG_reference_type ]
!1191 = metadata !{i32 786470, null, metadata !"", null, i32 0, i64 0, i64 0, i64 0, i32 0, metadata !1181} ; [ DW_TAG_const_type ]
!1192 = metadata !{i32 786478, i32 0, metadata !1111, metadata !"operator=", metadata !"operator=", metadata !"_ZNV11ap_int_baseILi17ELb1ELb1EEaSERKS0_", metadata !865, i32 1510, metadata !1183, i1 false, i1 false, i32 0, i32 0, null, i32 256, i1 false, null, null, i32 0, metadata !86, i32 1510} ; [ DW_TAG_subprogram ]
!1193 = metadata !{i32 786478, i32 0, metadata !1111, metadata !"operator=", metadata !"operator=", metadata !"_ZN11ap_int_baseILi17ELb1ELb1EEaSERVKS0_", metadata !865, i32 1533, metadata !1194, i1 false, i1 false, i32 0, i32 0, null, i32 256, i1 false, null, null, i32 0, metadata !86, i32 1533} ; [ DW_TAG_subprogram ]
!1194 = metadata !{i32 786453, i32 0, metadata !"", i32 0, i32 0, i64 0, i64 0, i64 0, i32 0, null, metadata !1195, i32 0, i32 0} ; [ DW_TAG_subroutine_type ]
!1195 = metadata !{metadata !1196, metadata !1128, metadata !1190}
!1196 = metadata !{i32 786448, null, null, null, i32 0, i64 0, i64 0, i64 0, i32 0, metadata !1111} ; [ DW_TAG_reference_type ]
!1197 = metadata !{i32 786478, i32 0, metadata !1111, metadata !"operator=", metadata !"operator=", metadata !"_ZN11ap_int_baseILi17ELb1ELb1EEaSERKS0_", metadata !865, i32 1538, metadata !1198, i1 false, i1 false, i32 0, i32 0, null, i32 256, i1 false, null, null, i32 0, metadata !86, i32 1538} ; [ DW_TAG_subprogram ]
!1198 = metadata !{i32 786453, i32 0, metadata !"", i32 0, i32 0, i64 0, i64 0, i64 0, i32 0, null, metadata !1199, i32 0, i32 0} ; [ DW_TAG_subroutine_type ]
!1199 = metadata !{metadata !1196, metadata !1128, metadata !1185}
!1200 = metadata !{i32 786478, i32 0, metadata !1111, metadata !"operator=", metadata !"operator=", metadata !"_ZN11ap_int_baseILi17ELb1ELb1EEaSEPKc", metadata !865, i32 1542, metadata !1201, i1 false, i1 false, i32 0, i32 0, null, i32 256, i1 false, null, null, i32 0, metadata !86, i32 1542} ; [ DW_TAG_subprogram ]
!1201 = metadata !{i32 786453, i32 0, metadata !"", i32 0, i32 0, i64 0, i64 0, i64 0, i32 0, null, metadata !1202, i32 0, i32 0} ; [ DW_TAG_subroutine_type ]
!1202 = metadata !{metadata !1196, metadata !1128, metadata !150}
!1203 = metadata !{i32 786478, i32 0, metadata !1111, metadata !"set", metadata !"set", metadata !"_ZN11ap_int_baseILi17ELb1ELb1EE3setEPKca", metadata !865, i32 1550, metadata !1204, i1 false, i1 false, i32 0, i32 0, null, i32 256, i1 false, null, null, i32 0, metadata !86, i32 1550} ; [ DW_TAG_subprogram ]
!1204 = metadata !{i32 786453, i32 0, metadata !"", i32 0, i32 0, i64 0, i64 0, i64 0, i32 0, null, metadata !1205, i32 0, i32 0} ; [ DW_TAG_subroutine_type ]
!1205 = metadata !{metadata !1196, metadata !1128, metadata !150, metadata !922}
!1206 = metadata !{i32 786478, i32 0, metadata !1111, metadata !"operator=", metadata !"operator=", metadata !"_ZN11ap_int_baseILi17ELb1ELb1EEaSEa", metadata !865, i32 1564, metadata !1207, i1 false, i1 false, i32 0, i32 0, null, i32 256, i1 false, null, null, i32 0, metadata !86, i32 1564} ; [ DW_TAG_subprogram ]
!1207 = metadata !{i32 786453, i32 0, metadata !"", i32 0, i32 0, i64 0, i64 0, i64 0, i32 0, null, metadata !1208, i32 0, i32 0} ; [ DW_TAG_subroutine_type ]
!1208 = metadata !{metadata !1196, metadata !1128, metadata !922}
!1209 = metadata !{i32 786478, i32 0, metadata !1111, metadata !"operator=", metadata !"operator=", metadata !"_ZN11ap_int_baseILi17ELb1ELb1EEaSEh", metadata !865, i32 1565, metadata !1210, i1 false, i1 false, i32 0, i32 0, null, i32 256, i1 false, null, null, i32 0, metadata !86, i32 1565} ; [ DW_TAG_subprogram ]
!1210 = metadata !{i32 786453, i32 0, metadata !"", i32 0, i32 0, i64 0, i64 0, i64 0, i32 0, null, metadata !1211, i32 0, i32 0} ; [ DW_TAG_subroutine_type ]
!1211 = metadata !{metadata !1196, metadata !1128, metadata !926}
!1212 = metadata !{i32 786478, i32 0, metadata !1111, metadata !"operator=", metadata !"operator=", metadata !"_ZN11ap_int_baseILi17ELb1ELb1EEaSEs", metadata !865, i32 1566, metadata !1213, i1 false, i1 false, i32 0, i32 0, null, i32 256, i1 false, null, null, i32 0, metadata !86, i32 1566} ; [ DW_TAG_subprogram ]
!1213 = metadata !{i32 786453, i32 0, metadata !"", i32 0, i32 0, i64 0, i64 0, i64 0, i32 0, null, metadata !1214, i32 0, i32 0} ; [ DW_TAG_subroutine_type ]
!1214 = metadata !{metadata !1196, metadata !1128, metadata !930}
!1215 = metadata !{i32 786478, i32 0, metadata !1111, metadata !"operator=", metadata !"operator=", metadata !"_ZN11ap_int_baseILi17ELb1ELb1EEaSEt", metadata !865, i32 1567, metadata !1216, i1 false, i1 false, i32 0, i32 0, null, i32 256, i1 false, null, null, i32 0, metadata !86, i32 1567} ; [ DW_TAG_subprogram ]
!1216 = metadata !{i32 786453, i32 0, metadata !"", i32 0, i32 0, i64 0, i64 0, i64 0, i32 0, null, metadata !1217, i32 0, i32 0} ; [ DW_TAG_subroutine_type ]
!1217 = metadata !{metadata !1196, metadata !1128, metadata !934}
!1218 = metadata !{i32 786478, i32 0, metadata !1111, metadata !"operator=", metadata !"operator=", metadata !"_ZN11ap_int_baseILi17ELb1ELb1EEaSEi", metadata !865, i32 1568, metadata !1219, i1 false, i1 false, i32 0, i32 0, null, i32 256, i1 false, null, null, i32 0, metadata !86, i32 1568} ; [ DW_TAG_subprogram ]
!1219 = metadata !{i32 786453, i32 0, metadata !"", i32 0, i32 0, i64 0, i64 0, i64 0, i32 0, null, metadata !1220, i32 0, i32 0} ; [ DW_TAG_subroutine_type ]
!1220 = metadata !{metadata !1196, metadata !1128, metadata !56}
!1221 = metadata !{i32 786478, i32 0, metadata !1111, metadata !"operator=", metadata !"operator=", metadata !"_ZN11ap_int_baseILi17ELb1ELb1EEaSEj", metadata !865, i32 1569, metadata !1222, i1 false, i1 false, i32 0, i32 0, null, i32 256, i1 false, null, null, i32 0, metadata !86, i32 1569} ; [ DW_TAG_subprogram ]
